Archive member included to satisfy reference by file (symbol)

../../addon/ugui/libugui.a(ugui.o)
                              casswindow.o (UG_FillFrame)
../../addon/ugui/libugui.a(uguicpp.o)
                              kernel.o (CUGUI::CUGUI(CScreenDevice*))
../../lib/usb/libusb.a(dwhcidevice.o)
                              kernel.o (CDWHCIDevice::~CDWHCIDevice())
../../lib/usb/libusb.a(dwhciregister.o)
                              ../../lib/usb/libusb.a(dwhcidevice.o) (CDWHCIRegister::CDWHCIRegister(unsigned int))
../../lib/usb/libusb.a(dwhcixferstagedata.o)
                              ../../lib/usb/libusb.a(dwhcidevice.o) (CDWHCITransferStageData::~CDWHCITransferStageData())
../../lib/usb/libusb.a(usbdevice.o)
                              ../../lib/usb/libusb.a(dwhcixferstagedata.o) (CUSBDevice::GetAddress() const)
../../lib/usb/libusb.a(usbendpoint.o)
                              ../../lib/usb/libusb.a(usbdevice.o) (CUSBEndpoint::CUSBEndpoint(CUSBDevice*))
../../lib/usb/libusb.a(usbhostcontroller.o)
                              ../../lib/usb/libusb.a(dwhcidevice.o) (CUSBHostController::CUSBHostController())
../../lib/usb/libusb.a(usbrequest.o)
                              ../../lib/usb/libusb.a(usbhostcontroller.o) (CUSBRequest::CUSBRequest(CUSBEndpoint*, void*, unsigned int, TSetupData*))
../../lib/usb/libusb.a(usbdevicefactory.o)
                              ../../lib/usb/libusb.a(usbdevice.o) (CUSBDeviceFactory::GetDevice(CUSBFunction*, CString*))
../../lib/usb/libusb.a(usbstandardhub.o)
                              ../../lib/usb/libusb.a(usbdevicefactory.o) (CUSBStandardHub::CUSBStandardHub(CUSBFunction*))
../../lib/usb/libusb.a(usbmassdevice.o)
                              ../../lib/usb/libusb.a(usbdevicefactory.o) (CUSBBulkOnlyMassStorageDevice::CUSBBulkOnlyMassStorageDevice(CUSBFunction*))
../../lib/usb/libusb.a(dwhciframeschednper.o)
                              ../../lib/usb/libusb.a(dwhcixferstagedata.o) (CDWHCIFrameSchedulerNonPeriodic::CDWHCIFrameSchedulerNonPeriodic())
../../lib/usb/libusb.a(dwhciframeschedper.o)
                              ../../lib/usb/libusb.a(dwhcixferstagedata.o) (CDWHCIFrameSchedulerPeriodic::CDWHCIFrameSchedulerPeriodic())
../../lib/usb/libusb.a(usbkeyboard.o)
                              ../../lib/usb/libusb.a(usbdevicefactory.o) (CUSBKeyboardDevice::CUSBKeyboardDevice(CUSBFunction*))
../../lib/usb/libusb.a(dwhcirootport.o)
                              ../../lib/usb/libusb.a(dwhcidevice.o) (CDWHCIRootPort::CDWHCIRootPort(CDWHCIDevice*))
../../lib/usb/libusb.a(usbhiddevice.o)
                              ../../lib/usb/libusb.a(usbkeyboard.o) (CUSBHIDDevice::CUSBHIDDevice(CUSBFunction*, unsigned int))
../../lib/usb/libusb.a(usbmouse.o)
                              ../../lib/usb/libusb.a(usbdevicefactory.o) (CUSBMouseDevice::CUSBMouseDevice(CUSBFunction*))
../../lib/usb/libusb.a(usbgamepad.o)
                              ../../lib/usb/libusb.a(usbdevicefactory.o) (CUSBGamePadDevice::CUSBGamePadDevice(CUSBFunction*))
../../lib/usb/libusb.a(usbfunction.o)
                              ../../lib/usb/libusb.a(usbdevice.o) (CUSBFunction::Initialize())
../../lib/usb/libusb.a(dwhciframeschednsplit.o)
                              ../../lib/usb/libusb.a(dwhcixferstagedata.o) (CDWHCIFrameSchedulerNoSplit::CDWHCIFrameSchedulerNoSplit(int))
../../lib/usb/libusb.a(usbprinter.o)
                              ../../lib/usb/libusb.a(usbdevicefactory.o) (CUSBPrinterDevice::CUSBPrinterDevice(CUSBFunction*))
../../lib/usb/libusb.a(usbbluetooth.o)
                              ../../lib/usb/libusb.a(usbdevicefactory.o) (CUSBBluetoothDevice::CUSBBluetoothDevice(CUSBFunction*))
../../lib/usb/libusb.a(usbmidi.o)
                              ../../lib/usb/libusb.a(usbdevicefactory.o) (CUSBMIDIDevice::CUSBMIDIDevice(CUSBFunction*))
../../lib/usb/libusb.a(usbcdcethernet.o)
                              ../../lib/usb/libusb.a(usbdevicefactory.o) (CUSBCDCEthernetDevice::CUSBCDCEthernetDevice(CUSBFunction*))
../../lib/usb/libusb.a(usbconfigparser.o)
                              ../../lib/usb/libusb.a(usbdevice.o) (CUSBConfigurationParser::CUSBConfigurationParser(void const*, unsigned int))
../../lib/usb/libusb.a(usbstring.o)
                              ../../lib/usb/libusb.a(usbcdcethernet.o) (CUSBString::CUSBString(CUSBDevice*))
../../lib/usb/libusb.a(smsc951x.o)
                              ../../lib/usb/libusb.a(usbdevicefactory.o) (CSMSC951xDevice::CSMSC951xDevice(CUSBFunction*))
../../lib/usb/libusb.a(macaddress.o)
                              ../../lib/usb/libusb.a(usbcdcethernet.o) (CMACAddress::CMACAddress())
../../lib/usb/libusb.a(netdevice.o)
                              ../../lib/usb/libusb.a(usbcdcethernet.o) (CNetDevice::CNetDevice(CUSBFunction*))
../../lib/input/libinput.a(keyboardbehaviour.o)
                              ../../lib/usb/libusb.a(usbkeyboard.o) (CKeyboardBehaviour::CKeyboardBehaviour())
../../lib/input/libinput.a(keymap.o)
                              ../../lib/input/libinput.a(keyboardbehaviour.o) (CKeyMap::~CKeyMap())
../../lib/input/libinput.a(mousebehaviour.o)
                              ../../lib/usb/libusb.a(usbmouse.o) (CMouseBehaviour::CMouseBehaviour())
../../lib/input/libinput.a(touchscreen.o)
                              ../../addon/ugui/libugui.a(uguicpp.o) (CTouchScreenDevice::Update())
../../lib/fs/libfs.a(partitionmanager.o)
                              ../../lib/usb/libusb.a(usbmassdevice.o) (CPartitionManager::CPartitionManager(CDevice*, char const*))
../../lib/fs/libfs.a(partition.o)
                              ../../lib/fs/libfs.a(partitionmanager.o) (CPartition::CPartition(CDevice*, unsigned int, unsigned int))
../../lib/libcircle8.a(actled.o)
                              kernel.o (CActLED::~CActLED())
../../lib/libcircle8.a(bcmpropertytags.o)
                              ../../lib/usb/libusb.a(dwhcidevice.o) (CBcmPropertyTags::CBcmPropertyTags())
../../lib/libcircle8.a(gpiopin.o)
                              ../../lib/libcircle8.a(actled.o) (CGPIOPin::Write(unsigned int))
../../lib/libcircle8.a(libstub.o)
                              ../../lib/usb/libusb.a(dwhcixferstagedata.o) (__aeabi_uidiv)
../../lib/libcircle8.a(memory.o)
                              kernel.o (CMemorySystem::~CMemorySystem())
../../lib/libcircle8.a(new.o)
                              ../../lib/usb/libusb.a(dwhcidevice.o) (operator new(unsigned int))
../../lib/libcircle8.a(purecall.o)
                              ../../lib/usb/libusb.a(usbhostcontroller.o) (__cxa_pure_virtual)
../../lib/libcircle8.a(synchronize.o)
                              ../../lib/usb/libusb.a(dwhcidevice.o) (EnterCritical)
../../lib/libcircle8.a(sysinit.o)
                              main.o (__aeabi_atexit)
../../lib/libcircle8.a(timer.o)
                              kernel.o (CTimer::CTimer(CInterruptSystem*))
../../lib/libcircle8.a(util.o)
                              ../../lib/usb/libusb.a(usbmassdevice.o) (memset)
../../lib/libcircle8.a(util_fast.o)
                              AY8910.o (memcpy)
../../lib/libcircle8.a(device.o)
                              ../../lib/usb/libusb.a(usbfunction.o) (CDevice::~CDevice())
../../lib/libcircle8.a(koptions.o)
                              kernel.o (CKernelOptions::~CKernelOptions())
../../lib/libcircle8.a(pagetable.o)
                              ../../lib/libcircle8.a(memory.o) (CPageTable::CPageTable())
../../lib/libcircle8.a(screen.o)
                              kernel.o (CScreenDevice::~CScreenDevice())
../../lib/libcircle8.a(assert.o)
                              pwmsound.o (assertion_failed)
../../lib/libcircle8.a(chargenerator.o)
                              ../../lib/libcircle8.a(screen.o) (CCharGenerator::CCharGenerator())
../../lib/libcircle8.a(debug.o)
                              ../../lib/usb/libusb.a(usbconfigparser.o) (debug_hexdump(void const*, unsigned int, char const*))
../../lib/libcircle8.a(devicenameservice.o)
                              kernel.o (CDeviceNameService::CDeviceNameService())
../../lib/libcircle8.a(logger.o)
                              kernel.o (CLogger::CLogger(unsigned int, CTimer*))
../../lib/libcircle8.a(serial.o)
                              kernel.o (CSerialDevice::CSerialDevice(CInterruptSystem*, int))
../../lib/libcircle8.a(string.o)
                              kernel.o (CString::~CString())
../../lib/libcircle8.a(delayloop.o)
                              ../../lib/libcircle8.a(timer.o) (DelayLoop)
../../lib/libcircle8.a(exceptionhandler.o)
                              kernel.o (CExceptionHandler::CExceptionHandler())
../../lib/libcircle8.a(exceptionstub.o)
                              ../../lib/libcircle8.a(exceptionhandler.o) (UndefinedInstructionStub)
../../lib/libcircle8.a(interrupt.o)
                              kernel.o (CInterruptSystem::CInterruptSystem())
../../lib/libcircle8.a(gpiomanager.o)
                              ../../lib/libcircle8.a(gpiopin.o) (CGPIOManager::ConnectInterrupt(CGPIOPin*))
../../lib/libcircle8.a(pwmsoundbasedevice.o)
                              pwmsound.o (CPWMSoundBaseDevice::GetRange() const)
../../lib/libcircle8.a(virtualgpiopin.o)
                              ../../lib/libcircle8.a(actled.o) (CVirtualGPIOPin::CVirtualGPIOPin(unsigned int))
../../lib/libcircle8.a(machineinfo.o)
                              ../../lib/libcircle8.a(sysinit.o) (CMachineInfo::CMachineInfo())
../../lib/libcircle8.a(bcmrandom.o)
                              AY8910.o (CBcmRandomNumberGenerator::CBcmRandomNumberGenerator())
../../lib/libcircle8.a(ptrlist.o)
                              ../../lib/libcircle8.a(timer.o) (CPtrList::CPtrList())
../../lib/libcircle8.a(alloc.o)
                              ../../lib/libcircle8.a(memory.o) (mem_init)
../../lib/libcircle8.a(bcmmailbox.o)
                              ../../lib/libcircle8.a(bcmpropertytags.o) (CBcmMailBox::CBcmMailBox(unsigned int))
../../lib/libcircle8.a(libhelper.o)
                              ../../lib/libcircle8.a(libstub.o) (__Divide)
../../lib/libcircle8.a(bcmframebuffer.o)
                              ../../lib/libcircle8.a(screen.o) (CBcmFrameBuffer::CBcmFrameBuffer(unsigned int, unsigned int, unsigned int, unsigned int, unsigned int))
../../lib/libcircle8.a(gpioclock.o)
                              ../../lib/libcircle8.a(pwmsoundbasedevice.o) (CGPIOClock::CGPIOClock(TGPIOClock, TGPIOClockSource))

Allocating common symbols
Common symbol       size              file

semiGrFont1         0x300             MC6847.o
VRAM                0x4               MC6847.o
rept                0x4               MC6847.o
cMap                0x12              MC6847.o
framebuffer         0x12c00           MC6847.o
semiGrFont0         0xc0              MC6847.o
repb                0x4               MC6847.o
repl                0x4               MC6847.o
frameBuf            0x4               MC6847.o
repr                0x4               MC6847.o

Memory Configuration

Name             Origin             Length             Attributes
*default*        0x0000000000000000 0xffffffffffffffff

Linker script and memory map

                0x0000000000008000                . = 0x8000

.text           0x0000000000008000    0x340f8
 *(.text*)
 .text          0x0000000000008000       0x64 ../../lib/startup.o
                0x0000000000008000                _start
 .text          0x0000000000008064        0x0 main.o
 .text.startup  0x0000000000008064       0x7c main.o
                0x0000000000008064                main
 .text          0x00000000000080e0      0xc8c kernel.o
                0x00000000000080e0                CKernel::CKernel()
                0x00000000000080e0                CKernel::CKernel()
                0x00000000000081f4                CKernel::reset()
                0x0000000000008280                CKernel::Initialize()
                0x00000000000084bc                CKernel::rotate(int, int)
                0x00000000000084c8                CKernel::dspcallback(unsigned int*, int)
                0x00000000000084e4                ReadVal()
                0x0000000000008550                CasWrite(CassetteTape*, int)
                0x00000000000085bc                LoopZ80
                0x00000000000085c4                PatchZ80
                0x00000000000085c8                memset(unsigned char*, int, int)
                0x00000000000085e8                CKernel::~CKernel()
                0x00000000000085e8                CKernel::~CKernel()
                0x000000000000868c                CKernel::Run()
                0x00000000000088c0                CKernel::KeyStatusHandlerRaw(unsigned char, unsigned char const*)
                0x00000000000089dc                CKernel::printf(char const*, ...)
                0x0000000000008a48                CasRead(CassetteTape*)
                0x0000000000008b28                InZ80
                0x0000000000008c00                printf
                0x0000000000008c48                OutZ80
 .text          0x0000000000008d6c    0x15d94 Z80SPC.o
                0x00000000000164ec                WrZ80
                0x00000000000164fc                RdZ80
                0x0000000000016528                ResetZ80
                0x0000000000016568                ExecZ80
                0x000000000001a3a8                IntZ80
                0x000000000001a624                RunZ80
 .text          0x000000000001eb00        0x0 spcall.o
 .text          0x000000000001eb00      0x700 MC6847.o
                0x000000000001eb00                Update6847
                0x000000000001f018                InitMC6847
 .text          0x000000000001f200      0xb14 AY8910.o
                0x000000000001f200                CAY8910::Reset8910(AY8910*, int)
                0x000000000001f288                CAY8910::WrCtrl8910(AY8910*, unsigned char)
                0x000000000001f294                CAY8910::RdData8910(AY8910*)
                0x000000000001f2a0                CAY8910::Sync8910(AY8910*, unsigned char)
                0x000000000001f35c                CAY8910::Write8910(AY8910*, unsigned char, unsigned char)
                0x000000000001f6a4                CAY8910::WrData8910(AY8910*, unsigned char)
                0x000000000001f6b0                CAY8910::Loop8910(AY8910*, int)
                0x000000000001f7c4                CAY8910::SndQueueInit()
                0x000000000001f82c                CAY8910::CAY8910(CTimer*)
                0x000000000001f82c                CAY8910::CAY8910(CTimer*)
                0x000000000001f868                CAY8910::SndEnqueue(int, int, int)
                0x000000000001f910                CAY8910::SndDequeue()
                0x000000000001f984                CAY8910::Sound(int, int, int)
                0x000000000001f9e0                CAY8910::DSPCallBack(unsigned int*, int)
                0x000000000001fd10                CAY8910::SetSound(int, int)
 .text          0x000000000001fd14      0x224 pwmsound.o
                0x000000000001fd14                CPWMSound::~CPWMSound()
                0x000000000001fd14                CPWMSound::~CPWMSound()
                0x000000000001fd3c                CPWMSound::~CPWMSound()
                0x000000000001fd70                CPWMSound::GetChunk(unsigned int*, unsigned int)
                0x000000000001fdf4                CPWMSound::CPWMSound(CInterruptSystem*)
                0x000000000001fdf4                CPWMSound::CPWMSound(CInterruptSystem*)
                0x000000000001fe68                CPWMSound::Playback(void*, unsigned int, unsigned int, unsigned int)
                0x000000000001ff30                CPWMSound::PlaybackActive() const
                0x000000000001ff34                CPWMSound::CancelPlayback()
 .text          0x000000000001ff38      0x1d0 casswindow.o
                0x000000000001ff38                CCassWindow::Callback(UG_MESSAGE*)
                0x000000000001ff3c                CCassWindow::CCassWindow(short, short)
                0x000000000001ff3c                CCassWindow::CCassWindow(short, short)
                0x0000000000020034                CCassWindow::~CCassWindow()
                0x0000000000020034                CCassWindow::~CCassWindow()
                0x0000000000020050                CCassWindow::Update(int)
 .text          0x0000000000020108     0x607c ../../addon/ugui/libugui.a(ugui.o)
                0x000000000002050c                UG_Init
                0x00000000000205a8                UG_SelectGUI
                0x00000000000205bc                UG_FontSelect
                0x00000000000205e8                UG_FillFrame
                0x00000000000206ac                UG_FillScreen
                0x00000000000206f0                UG_DrawMesh
                0x0000000000020770                UG_DrawPixel
                0x0000000000020784                UG_DrawCircle
                0x00000000000207a0                UG_DrawArc
                0x00000000000207c4                UG_DrawLine
                0x0000000000020988                UG_FillRoundFrame
                0x0000000000020b2c                UG_DrawFrame
                0x0000000000020ba4                UG_DrawRoundFrame
                0x0000000000020d80                UG_FillCircle
                0x0000000000020eec                UG_ConsoleSetArea
                0x0000000000020f0c                UG_ConsoleSetForecolor
                0x0000000000020f20                UG_ConsoleSetBackcolor
                0x0000000000020f34                UG_SetForecolor
                0x0000000000020f48                UG_SetBackcolor
                0x0000000000020f5c                UG_GetXDim
                0x0000000000020f70                UG_GetYDim
                0x0000000000020f84                UG_FontSetHSpace
                0x0000000000020f98                UG_FontSetVSpace
                0x0000000000020fac                _UG_PutChar
                0x0000000000021614                UG_PutChar
                0x0000000000021644                UG_PutString
                0x000000000002171c                UG_ConsolePutString
                0x0000000000021828                _UG_PutText
                0x0000000000021a74                _UG_GetFreeObject
                0x0000000000021ad0                _UG_SearchObject
                0x0000000000021b4c                _UG_DeleteObject
                0x0000000000021bd4                _UG_ProcessTouchData
                0x0000000000021cd4                _UG_UpdateObjects
                0x0000000000021d74                _UG_HandleEvents
                0x0000000000021e34                _UG_DrawObjectFrame
                0x0000000000022030                _UG_SendObjectPrerenderEvent
                0x000000000002206c                _UG_SendObjectPostrenderEvent
                0x00000000000220ac                UG_DriverRegister
                0x00000000000220d4                UG_DriverEnable
                0x0000000000022100                UG_DriverDisable
                0x000000000002212c                UG_WaitForUpdate
                0x0000000000022148                UG_DrawBMP
                0x0000000000022210                UG_TouchUpdate
                0x000000000002222c                UG_WindowCreate
                0x00000000000222f0                UG_WindowDelete
                0x0000000000022348                UG_WindowShow
                0x0000000000022378                UG_WindowResize
                0x0000000000022520                UG_WindowAlert
                0x000000000002255c                UG_WindowSetForeColor
                0x000000000002258c                UG_WindowSetBackColor
                0x00000000000225bc                UG_WindowSetTitleTextColor
                0x00000000000225ec                UG_WindowSetTitleColor
                0x000000000002261c                UG_WindowSetTitleInactiveTextColor
                0x000000000002264c                UG_WindowSetTitleInactiveColor
                0x000000000002267c                UG_WindowSetTitleText
                0x00000000000226ac                UG_WindowSetTitleTextFont
                0x0000000000022710                UG_WindowSetTitleTextHSpace
                0x0000000000022740                UG_WindowSetTitleTextVSpace
                0x0000000000022770                UG_WindowSetTitleTextAlignment
                0x00000000000227a0                UG_WindowSetTitleHeight
                0x00000000000227d4                UG_WindowSetXStart
                0x0000000000022828                UG_WindowSetYStart
                0x0000000000022880                UG_WindowSetXEnd
                0x00000000000228d8                UG_WindowSetYEnd
                0x0000000000022930                UG_WindowSetStyle
                0x0000000000022980                UG_WindowGetForeColor
                0x00000000000229a0                UG_WindowGetBackColor
                0x00000000000229c0                UG_WindowGetTitleTextColor
                0x00000000000229e0                UG_WindowGetTitleColor
                0x0000000000022a00                UG_WindowGetTitleInactiveTextColor
                0x0000000000022a20                UG_WindowGetTitleInactiveColor
                0x0000000000022a40                UG_WindowGetTitleText
                0x0000000000022a5c                UG_WindowGetTitleTextFont
                0x0000000000022a78                UG_WindowGetTitleTextHSpace
                0x0000000000022a98                UG_WindowGetTitleTextVSpace
                0x0000000000022ab8                UG_WindowGetTitleTextAlignment
                0x0000000000022ad8                UG_WindowGetTitleHeight
                0x0000000000022af8                UG_WindowGetXStart
                0x0000000000022b1c                UG_WindowGetYStart
                0x0000000000022b40                UG_WindowGetXEnd
                0x0000000000022b64                UG_WindowGetYEnd
                0x0000000000022b88                UG_WindowGetStyle
                0x0000000000022ba8                UG_WindowGetArea
                0x0000000000022c44                _UG_ButtonUpdate
                0x0000000000022f78                _UG_CheckboxUpdate
                0x00000000000235f4                _UG_TextboxUpdate
                0x0000000000023798                _UG_ImageUpdate
                0x0000000000023890                UG_WindowGetInnerWidth
                0x00000000000238d8                UG_WindowGetOuterWidth
                0x0000000000023908                UG_WindowGetInnerHeight
                0x0000000000023960                UG_WindowGetOuterHeight
                0x0000000000023990                _UG_WindowDrawTitle
                0x0000000000023acc                _UG_WindowUpdate
                0x0000000000023c28                UG_Update
                0x0000000000023d40                _UG_WindowClear
                0x0000000000023dc8                UG_WindowHide
                0x0000000000023e90                UG_ButtonCreate
                0x0000000000023fb8                UG_ButtonDelete
                0x0000000000023fc4                UG_ButtonShow
                0x0000000000024034                UG_ButtonHide
                0x00000000000240c8                UG_ButtonSetForeColor
                0x0000000000024144                UG_ButtonSetBackColor
                0x00000000000241c0                UG_ButtonSetAlternateForeColor
                0x000000000002423c                UG_ButtonSetAlternateBackColor
                0x00000000000242b8                UG_ButtonSetText
                0x0000000000024334                UG_ButtonSetFont
                0x00000000000243b0                UG_ButtonSetStyle
                0x000000000002448c                UG_ButtonSetHSpace
                0x0000000000024508                UG_ButtonSetVSpace
                0x0000000000024584                UG_ButtonSetAlignment
                0x0000000000024600                UG_ButtonGetForeColor
                0x000000000002466c                UG_ButtonGetBackColor
                0x00000000000246d8                UG_ButtonGetAlternateForeColor
                0x0000000000024744                UG_ButtonGetAlternateBackColor
                0x00000000000247b0                UG_ButtonGetText
                0x000000000002481c                UG_ButtonGetFont
                0x0000000000024888                UG_ButtonGetStyle
                0x00000000000248f8                UG_ButtonGetHSpace
                0x0000000000024964                UG_ButtonGetVSpace
                0x00000000000249d0                UG_ButtonGetAlignment
                0x0000000000024a40                UG_CheckboxCreate
                0x0000000000024b6c                UG_CheckboxDelete
                0x0000000000024b78                UG_CheckboxShow
                0x0000000000024be8                UG_CheckboxHide
                0x0000000000024c7c                UG_CheckboxSetCheched
                0x0000000000024cf8                UG_CheckboxSetForeColor
                0x0000000000024d74                UG_CheckboxSetBackColor
                0x0000000000024df0                UG_CheckboxSetAlternateForeColor
                0x0000000000024e6c                UG_CheckboxSetAlternateBackColor
                0x0000000000024ee8                UG_CheckboxSetText
                0x0000000000024f64                UG_CheckboxSetFont
                0x0000000000024fe0                UG_CheckboxSetStyle
                0x00000000000250bc                UG_CheckboxSetHSpace
                0x0000000000025138                UG_CheckboxSetVSpace
                0x00000000000251b4                UG_CheckboxSetAlignment
                0x0000000000025230                UG_CheckboxGetChecked
                0x00000000000252a0                UG_CheckboxGetForeColor
                0x000000000002530c                UG_CheckboxGetBackColor
                0x0000000000025378                UG_CheckboxGetAlternateForeColor
                0x00000000000253e4                UG_CheckboxGetAlternateBackColor
                0x0000000000025450                UG_CheckboxGetText
                0x00000000000254bc                UG_CheckboxGetFont
                0x0000000000025528                UG_CheckboxGetStyle
                0x0000000000025598                UG_CheckboxGetHSpace
                0x0000000000025604                UG_CheckboxGetVSpace
                0x0000000000025670                UG_CheckboxGetAlignment
                0x00000000000256e0                UG_TextboxCreate
                0x00000000000257f4                UG_TextboxDelete
                0x0000000000025800                UG_TextboxShow
                0x0000000000025870                UG_TextboxHide
                0x00000000000258e4                UG_TextboxSetForeColor
                0x0000000000025960                UG_TextboxSetBackColor
                0x00000000000259dc                UG_TextboxSetText
                0x0000000000025a58                UG_TextboxSetFont
                0x0000000000025ad4                UG_TextboxSetHSpace
                0x0000000000025b50                UG_TextboxSetVSpace
                0x0000000000025bcc                UG_TextboxSetAlignment
                0x0000000000025c48                UG_TextboxGetForeColor
                0x0000000000025cb4                UG_TextboxGetBackColor
                0x0000000000025d20                UG_TextboxGetText
                0x0000000000025d8c                UG_TextboxGetFont
                0x0000000000025df8                UG_TextboxGetHSpace
                0x0000000000025e64                UG_TextboxGetVSpace
                0x0000000000025ed0                UG_TextboxGetAlignment
                0x0000000000025f40                UG_ImageCreate
                0x0000000000026010                UG_ImageDelete
                0x000000000002601c                UG_ImageShow
                0x000000000002608c                UG_ImageHide
                0x0000000000026100                UG_ImageSetBMP
 .text          0x0000000000026184      0x3bc ../../addon/ugui/libugui.a(uguicpp.o)
                0x0000000000026184                CUGUI::SetPixel(short, short, unsigned char)
                0x0000000000026208                CUGUI::CUGUI(CScreenDevice*)
                0x0000000000026208                CUGUI::CUGUI(CScreenDevice*)
                0x0000000000026258                CUGUI::~CUGUI()
                0x0000000000026258                CUGUI::~CUGUI()
                0x000000000002626c                CUGUI::Initialize()
                0x0000000000026398                CUGUI::Update()
                0x00000000000263e4                CUGUI::MouseEventHandler(TMouseEvent, unsigned int, unsigned int, unsigned int)
                0x0000000000026428                CUGUI::MouseEventStub(TMouseEvent, unsigned int, unsigned int, unsigned int)
                0x0000000000026494                CUGUI::TouchScreenEventHandler(TTouchScreenEvent, unsigned int, unsigned int, unsigned int)
                0x00000000000264d4                CUGUI::TouchScreenEventStub(TTouchScreenEvent, unsigned int, unsigned int, unsigned int)
 .text          0x0000000000026540     0x2554 ../../lib/usb/libusb.a(dwhcidevice.o)
                0x0000000000026540                CDWHCIDevice::CompletionRoutine(CUSBRequest*, void*, void*)
                0x00000000000265a0                CDWHCIDevice::~CDWHCIDevice()
                0x00000000000265a0                CDWHCIDevice::~CDWHCIDevice()
                0x00000000000265d4                CDWHCIDevice::~CDWHCIDevice()
                0x0000000000026670                CDWHCIDevice::CDWHCIDevice(CInterruptSystem*, CTimer*)
                0x0000000000026670                CDWHCIDevice::CDWHCIDevice(CInterruptSystem*, CTimer*)
                0x0000000000026758                CDWHCIDevice::GetPortSpeed()
                0x00000000000267ac                CDWHCIDevice::OvercurrentDetected()
                0x00000000000267e8                CDWHCIDevice::DisableRootPort()
                0x000000000002682c                CDWHCIDevice::PowerOn()
                0x0000000000026894                CDWHCIDevice::EnableGlobalInterrupts()
                0x00000000000268d8                CDWHCIDevice::EnableCommonInterrupts()
                0x0000000000026910                CDWHCIDevice::EnableHostInterrupts()
                0x000000000002696c                CDWHCIDevice::EnableChannelInterrupt(unsigned int)
                0x00000000000269e0                CDWHCIDevice::DisableChannelInterrupt(unsigned int)
                0x0000000000026a54                CDWHCIDevice::StartChannel(CDWHCITransferStageData*)
                0x0000000000026e28                CDWHCIDevice::StartTransaction(CDWHCITransferStageData*)
                0x0000000000026f44                CDWHCIDevice::TimerHandler(CDWHCITransferStageData*)
                0x0000000000027008                CDWHCIDevice::TimerStub(unsigned int, void*, void*)
                0x0000000000027078                CDWHCIDevice::AllocateChannel()
                0x0000000000027140                CDWHCIDevice::FreeChannel(unsigned int)
                0x00000000000271dc                CDWHCIDevice::TransferStageAsync(CUSBRequest*, int, int)
                0x000000000002733c                CDWHCIDevice::SubmitAsyncRequest(CUSBRequest*)
                0x0000000000027410                CDWHCIDevice::ChannelInterruptHandler(unsigned int)
                0x00000000000278f0                CDWHCIDevice::InterruptHandler()
                0x00000000000279e8                CDWHCIDevice::InterruptStub(void*)
                0x0000000000027a28                CDWHCIDevice::AllocateWaitBlock()
                0x0000000000027aa0                CDWHCIDevice::FreeWaitBlock(unsigned int)
                0x0000000000027b38                CDWHCIDevice::TransferStage(CUSBRequest*, int, int)
                0x0000000000027c28                CDWHCIDevice::SubmitBlockingRequest(CUSBRequest*)
                0x0000000000027e60                CDWHCIDevice::WaitForBit(CDWHCIRegister*, unsigned int, int, unsigned int)
                0x0000000000027f68                CDWHCIDevice::EnableRootPort()
                0x0000000000028028                CDWHCIDevice::Reset()
                0x00000000000280cc                CDWHCIDevice::InitCore()
                0x000000000002832c                CDWHCIDevice::FlushTxFIFO(unsigned int)
                0x00000000000283c8                CDWHCIDevice::FlushRxFIFO()
                0x0000000000028448                CDWHCIDevice::InitHost()
                0x000000000002864c                CDWHCIDevice::Initialize()
                0x000000000002888c                CDWHCIDevice::DumpRegister(char const*, unsigned int)
                0x00000000000288ec                CDWHCIDevice::DumpStatus(unsigned int)
 .text          0x0000000000028a94      0x2fc ../../lib/usb/libusb.a(dwhciregister.o)
                0x0000000000028a94                CDWHCIRegister::CDWHCIRegister(unsigned int)
                0x0000000000028a94                CDWHCIRegister::CDWHCIRegister(unsigned int)
                0x0000000000028aa4                CDWHCIRegister::CDWHCIRegister(unsigned int, unsigned int)
                0x0000000000028aa4                CDWHCIRegister::CDWHCIRegister(unsigned int, unsigned int)
                0x0000000000028ab4                CDWHCIRegister::~CDWHCIRegister()
                0x0000000000028ab4                CDWHCIRegister::~CDWHCIRegister()
                0x0000000000028ab8                CDWHCIRegister::Read()
                0x0000000000028ad4                CDWHCIRegister::Write()
                0x0000000000028b10                CDWHCIRegister::Get() const
                0x0000000000028b44                CDWHCIRegister::Set(unsigned int)
                0x0000000000028b54                CDWHCIRegister::IsSet(unsigned int) const
                0x0000000000028b9c                CDWHCIRegister::And(unsigned int)
                0x0000000000028bdc                CDWHCIRegister::Or(unsigned int)
                0x0000000000028c1c                CDWHCIRegister::ClearBit(unsigned int)
                0x0000000000028c80                CDWHCIRegister::SetBit(unsigned int)
                0x0000000000028ce4                CDWHCIRegister::ClearAll()
                0x0000000000028cf8                CDWHCIRegister::SetAll()
                0x0000000000028d0c                CDWHCIRegister::Dump() const
 .text          0x0000000000028d90      0x964 ../../lib/usb/libusb.a(dwhcixferstagedata.o)
                0x0000000000028d90                CDWHCITransferStageData::~CDWHCITransferStageData()
                0x0000000000028d90                CDWHCITransferStageData::~CDWHCITransferStageData()
                0x0000000000028dd4                CDWHCITransferStageData::TransactionComplete(unsigned int, unsigned int, unsigned int)
                0x0000000000028f88                CDWHCITransferStageData::SetSplitComplete(int)
                0x0000000000028fc0                CDWHCITransferStageData::SetState(unsigned int)
                0x0000000000028fc8                CDWHCITransferStageData::GetState() const
                0x0000000000028fd0                CDWHCITransferStageData::SetSubState(unsigned int)
                0x0000000000028fd8                CDWHCITransferStageData::GetSubState() const
                0x0000000000028fe0                CDWHCITransferStageData::BeginSplitCycle()
                0x0000000000028fe8                CDWHCITransferStageData::GetChannelNumber() const
                0x0000000000028ff0                CDWHCITransferStageData::IsPeriodic() const
                0x0000000000029040                CDWHCITransferStageData::CDWHCITransferStageData(unsigned int, CUSBRequest*, int, int)
                0x0000000000029040                CDWHCITransferStageData::CDWHCITransferStageData(unsigned int, CUSBRequest*, int, int)
                0x00000000000292e8                CDWHCITransferStageData::GetDeviceAddress() const
                0x000000000002932c                CDWHCITransferStageData::GetEndpointType() const
                0x00000000000293a8                CDWHCITransferStageData::GetEndpointNumber() const
                0x00000000000293ec                CDWHCITransferStageData::GetMaxPacketSize() const
                0x00000000000293f4                CDWHCITransferStageData::GetSpeed() const
                0x00000000000293fc                CDWHCITransferStageData::GetPID() const
                0x000000000002947c                CDWHCITransferStageData::IsDirectionIn() const
                0x0000000000029484                CDWHCITransferStageData::IsStatusStage() const
                0x000000000002948c                CDWHCITransferStageData::GetDMAAddress() const
                0x00000000000294d0                CDWHCITransferStageData::GetBytesToTransfer() const
                0x00000000000294d8                CDWHCITransferStageData::GetPacketsToTransfer() const
                0x00000000000294e0                CDWHCITransferStageData::IsSplit() const
                0x00000000000294e8                CDWHCITransferStageData::IsSplitComplete() const
                0x000000000002951c                CDWHCITransferStageData::GetHubAddress() const
                0x0000000000029590                CDWHCITransferStageData::GetHubPortAddress() const
                0x0000000000029604                CDWHCITransferStageData::GetSplitPosition() const
                0x000000000002960c                CDWHCITransferStageData::GetStatusMask() const
                0x0000000000029640                CDWHCITransferStageData::GetTransactionStatus() const
                0x0000000000029684                CDWHCITransferStageData::IsStageComplete() const
                0x0000000000029694                CDWHCITransferStageData::GetResultLen() const
                0x00000000000296a8                CDWHCITransferStageData::GetURB() const
                0x00000000000296ec                CDWHCITransferStageData::GetFrameScheduler() const
 .text          0x00000000000296f4      0xec8 ../../lib/usb/libusb.a(usbdevice.o)
                0x00000000000296f4                CUSBDevice::~CUSBDevice()
                0x00000000000296f4                CUSBDevice::~CUSBDevice()
                0x00000000000297a8                CUSBDevice::~CUSBDevice()
                0x00000000000297c8                CUSBDevice::CUSBDevice(CUSBHostController*, TUSBSpeed, int, unsigned char, unsigned char)
                0x00000000000297c8                CUSBDevice::CUSBDevice(CUSBHostController*, TUSBSpeed, int, unsigned char, unsigned char)
                0x00000000000298ac                CUSBDevice::GetName(TDeviceNameSelector) const
                0x00000000000299cc                CUSBDevice::GetNames() const
                0x0000000000029b00                CUSBDevice::SetAddress(unsigned char)
                0x0000000000029b40                CUSBDevice::GetAddress() const
                0x0000000000029b48                CUSBDevice::GetSpeed() const
                0x0000000000029b50                CUSBDevice::IsSplit() const
                0x0000000000029b58                CUSBDevice::GetHubAddress() const
                0x0000000000029b60                CUSBDevice::GetHubPortNumber() const
                0x0000000000029b68                CUSBDevice::GetEndpoint0() const
                0x0000000000029ba8                CUSBDevice::GetHost() const
                0x0000000000029bec                CUSBDevice::GetDeviceDescriptor() const
                0x0000000000029c2c                CUSBDevice::GetConfigurationDescriptor() const
                0x0000000000029c70                CUSBDevice::GetDescriptor(unsigned char)
                0x0000000000029cbc                CUSBDevice::ConfigurationError(char const*) const
                0x0000000000029d0c                CUSBDevice::LogWrite(TLogSeverity, char const*, ...)
                0x0000000000029dc0                CUSBDevice::Initialize()
                0x000000000002a4b4                CUSBDevice::Configure()
 .text          0x000000000002a5bc      0x480 ../../lib/usb/libusb.a(usbendpoint.o)
                0x000000000002a5bc                CUSBEndpoint::CUSBEndpoint(CUSBDevice*)
                0x000000000002a5bc                CUSBEndpoint::CUSBEndpoint(CUSBDevice*)
                0x000000000002a61c                CUSBEndpoint::CUSBEndpoint(CUSBDevice*, TUSBEndpointDescriptor const*)
                0x000000000002a61c                CUSBEndpoint::CUSBEndpoint(CUSBDevice*, TUSBEndpointDescriptor const*)
                0x000000000002a7cc                CUSBEndpoint::CUSBEndpoint(CUSBEndpoint*, CUSBDevice*)
                0x000000000002a7cc                CUSBEndpoint::CUSBEndpoint(CUSBEndpoint*, CUSBDevice*)
                0x000000000002a858                CUSBEndpoint::~CUSBEndpoint()
                0x000000000002a858                CUSBEndpoint::~CUSBEndpoint()
                0x000000000002a85c                CUSBEndpoint::GetDevice() const
                0x000000000002a89c                CUSBEndpoint::GetNumber() const
                0x000000000002a8a4                CUSBEndpoint::GetType() const
                0x000000000002a8ac                CUSBEndpoint::IsDirectionIn() const
                0x000000000002a8b4                CUSBEndpoint::SetMaxPacketSize(unsigned int)
                0x000000000002a8bc                CUSBEndpoint::GetMaxPacketSize() const
                0x000000000002a8c4                CUSBEndpoint::GetInterval() const
                0x000000000002a8f8                CUSBEndpoint::GetNextPID(int)
                0x000000000002a940                CUSBEndpoint::SkipPID(unsigned int, int)
                0x000000000002aa04                CUSBEndpoint::ResetPID()
 .text          0x000000000002aa3c      0x220 ../../lib/usb/libusb.a(usbhostcontroller.o)
                0x000000000002aa3c                CUSBHostController::CUSBHostController()
                0x000000000002aa3c                CUSBHostController::CUSBHostController()
                0x000000000002aa4c                CUSBHostController::~CUSBHostController()
                0x000000000002aa4c                CUSBHostController::~CUSBHostController()
                0x000000000002aa50                CUSBHostController::~CUSBHostController()
                0x000000000002aa68                CUSBHostController::ControlMessage(CUSBEndpoint*, unsigned char, unsigned char, unsigned short, unsigned short, void*, unsigned short)
                0x000000000002ab2c                CUSBHostController::GetDescriptor(CUSBEndpoint*, unsigned char, unsigned char, void*, unsigned int, unsigned char, unsigned short)
                0x000000000002ab64                CUSBHostController::SetAddress(CUSBEndpoint*, unsigned char)
                0x000000000002abb0                CUSBHostController::SetConfiguration(CUSBEndpoint*, unsigned char)
                0x000000000002abfc                CUSBHostController::Transfer(CUSBEndpoint*, void*, unsigned int)
 .text          0x000000000002ac5c      0x258 ../../lib/usb/libusb.a(usbrequest.o)
                0x000000000002ac5c                CUSBRequest::CUSBRequest(CUSBEndpoint*, void*, unsigned int, TSetupData*)
                0x000000000002ac5c                CUSBRequest::CUSBRequest(CUSBEndpoint*, void*, unsigned int, TSetupData*)
                0x000000000002acf0                CUSBRequest::~CUSBRequest()
                0x000000000002acf0                CUSBRequest::~CUSBRequest()
                0x000000000002acf4                CUSBRequest::GetEndpoint() const
                0x000000000002ad34                CUSBRequest::SetStatus(int)
                0x000000000002ad3c                CUSBRequest::SetResultLen(unsigned int)
                0x000000000002ad44                CUSBRequest::GetStatus() const
                0x000000000002ad4c                CUSBRequest::GetResultLength() const
                0x000000000002ad80                CUSBRequest::GetSetupData()
                0x000000000002addc                CUSBRequest::GetBuffer()
                0x000000000002ae28                CUSBRequest::GetBufLen() const
                0x000000000002ae30                CUSBRequest::SetCompletionRoutine(void (*)(CUSBRequest*, void*, void*), void*, void*)
                0x000000000002ae58                CUSBRequest::CallCompletionRoutine()
                0x000000000002aea0                CUSBRequest::SetCompleteOnNAK()
                0x000000000002aeac                CUSBRequest::IsCompleteOnNAK() const
 .text          0x000000000002aeb4      0x2dc ../../lib/usb/libusb.a(usbdevicefactory.o)
                0x000000000002aeb4                CUSBDeviceFactory::GetDevice(CUSBFunction*, CString*)
 .text          0x000000000002b190      0xa38 ../../lib/usb/libusb.a(usbstandardhub.o)
                0x000000000002b190                CUSBStandardHub::~CUSBStandardHub()
                0x000000000002b190                CUSBStandardHub::~CUSBStandardHub()
                0x000000000002b224                CUSBStandardHub::~CUSBStandardHub()
                0x000000000002b244                CUSBStandardHub::CUSBStandardHub(CUSBFunction*)
                0x000000000002b244                CUSBStandardHub::CUSBStandardHub(CUSBFunction*)
                0x000000000002b290                CUSBStandardHub::EnumeratePorts()
                0x000000000002b9ac                CUSBStandardHub::Configure()
 .text          0x000000000002bbc8      0xc68 ../../lib/usb/libusb.a(usbmassdevice.o)
                0x000000000002bbc8                CUSBBulkOnlyMassStorageDevice::Seek(unsigned long long)
                0x000000000002bbd8                CUSBBulkOnlyMassStorageDevice::~CUSBBulkOnlyMassStorageDevice()
                0x000000000002bbd8                CUSBBulkOnlyMassStorageDevice::~CUSBBulkOnlyMassStorageDevice()
                0x000000000002bc74                CUSBBulkOnlyMassStorageDevice::~CUSBBulkOnlyMassStorageDevice()
                0x000000000002bc94                CUSBBulkOnlyMassStorageDevice::CUSBBulkOnlyMassStorageDevice(CUSBFunction*)
                0x000000000002bc94                CUSBBulkOnlyMassStorageDevice::CUSBBulkOnlyMassStorageDevice(CUSBFunction*)
                0x000000000002bcd8                CUSBBulkOnlyMassStorageDevice::GetCapacity() const
                0x000000000002bce0                CUSBBulkOnlyMassStorageDevice::Command(void*, unsigned int, void*, unsigned int, int)
                0x000000000002bf98                CUSBBulkOnlyMassStorageDevice::TryRead(void*, unsigned int)
                0x000000000002c0c0                CUSBBulkOnlyMassStorageDevice::TryWrite(void const*, unsigned int)
                0x000000000002c1e4                CUSBBulkOnlyMassStorageDevice::Reset()
                0x000000000002c33c                CUSBBulkOnlyMassStorageDevice::Read(void*, unsigned int)
                0x000000000002c39c                CUSBBulkOnlyMassStorageDevice::Write(void const*, unsigned int)
                0x000000000002c3fc                CUSBBulkOnlyMassStorageDevice::Configure()
 .text          0x000000000002c830      0x214 ../../lib/usb/libusb.a(dwhciframeschednper.o)
                0x000000000002c830                CDWHCIFrameSchedulerNonPeriodic::~CDWHCIFrameSchedulerNonPeriodic()
                0x000000000002c830                CDWHCIFrameSchedulerNonPeriodic::~CDWHCIFrameSchedulerNonPeriodic()
                0x000000000002c834                CDWHCIFrameSchedulerNonPeriodic::StartSplit()
                0x000000000002c840                CDWHCIFrameSchedulerNonPeriodic::WaitForFrame()
                0x000000000002c844                CDWHCIFrameSchedulerNonPeriodic::IsOddFrame() const
                0x000000000002c84c                CDWHCIFrameSchedulerNonPeriodic::~CDWHCIFrameSchedulerNonPeriodic()
                0x000000000002c864                CDWHCIFrameSchedulerNonPeriodic::CompleteSplit()
                0x000000000002c8e0                CDWHCIFrameSchedulerNonPeriodic::TransactionComplete(unsigned int)
                0x000000000002c9f4                CDWHCIFrameSchedulerNonPeriodic::CDWHCIFrameSchedulerNonPeriodic()
                0x000000000002c9f4                CDWHCIFrameSchedulerNonPeriodic::CDWHCIFrameSchedulerNonPeriodic()
 .text          0x000000000002ca44      0x2bc ../../lib/usb/libusb.a(dwhciframeschedper.o)
                0x000000000002ca44                CDWHCIFrameSchedulerPeriodic::~CDWHCIFrameSchedulerPeriodic()
                0x000000000002ca44                CDWHCIFrameSchedulerPeriodic::~CDWHCIFrameSchedulerPeriodic()
                0x000000000002ca48                CDWHCIFrameSchedulerPeriodic::StartSplit()
                0x000000000002ca5c                CDWHCIFrameSchedulerPeriodic::IsOddFrame() const
                0x000000000002ca68                CDWHCIFrameSchedulerPeriodic::~CDWHCIFrameSchedulerPeriodic()
                0x000000000002ca80                CDWHCIFrameSchedulerPeriodic::WaitForFrame()
                0x000000000002caf4                CDWHCIFrameSchedulerPeriodic::CompleteSplit()
                0x000000000002cb94                CDWHCIFrameSchedulerPeriodic::TransactionComplete(unsigned int)
                0x000000000002cca8                CDWHCIFrameSchedulerPeriodic::CDWHCIFrameSchedulerPeriodic()
                0x000000000002cca8                CDWHCIFrameSchedulerPeriodic::CDWHCIFrameSchedulerPeriodic()
 .text          0x000000000002cd00      0x43c ../../lib/usb/libusb.a(usbkeyboard.o)
                0x000000000002cd00                CUSBKeyboardDevice::~CUSBKeyboardDevice()
                0x000000000002cd00                CUSBKeyboardDevice::~CUSBKeyboardDevice()
                0x000000000002cd34                CUSBKeyboardDevice::~CUSBKeyboardDevice()
                0x000000000002cd74                CUSBKeyboardDevice::ReportHandler(unsigned char const*)
                0x000000000002ced8                CUSBKeyboardDevice::CUSBKeyboardDevice(CUSBFunction*)
                0x000000000002ced8                CUSBKeyboardDevice::CUSBKeyboardDevice(CUSBFunction*)
                0x000000000002cf24                CUSBKeyboardDevice::RegisterKeyPressedHandler(void (*)(char const*))
                0x000000000002cf2c                CUSBKeyboardDevice::RegisterSelectConsoleHandler(void (*)(unsigned int))
                0x000000000002cf34                CUSBKeyboardDevice::RegisterShutdownHandler(void (*)())
                0x000000000002cf3c                CUSBKeyboardDevice::GetLEDStatus() const
                0x000000000002cf64                CUSBKeyboardDevice::RegisterKeyStatusHandlerRaw(void (*)(unsigned char, unsigned char const*))
                0x000000000002cf9c                CUSBKeyboardDevice::SetLEDs(unsigned char)
                0x000000000002d008                CUSBKeyboardDevice::UpdateLEDs()
                0x000000000002d064                CUSBKeyboardDevice::FindByte(unsigned char const*, unsigned char, unsigned int)
                0x000000000002d090                CUSBKeyboardDevice::Configure()
 .text          0x000000000002d13c      0x1f0 ../../lib/usb/libusb.a(dwhcirootport.o)
                0x000000000002d13c                CDWHCIRootPort::CDWHCIRootPort(CDWHCIDevice*)
                0x000000000002d13c                CDWHCIRootPort::CDWHCIRootPort(CDWHCIDevice*)
                0x000000000002d17c                CDWHCIRootPort::~CDWHCIRootPort()
                0x000000000002d17c                CDWHCIRootPort::~CDWHCIRootPort()
                0x000000000002d1a4                CDWHCIRootPort::Initialize()
 .text          0x000000000002d32c      0x50c ../../lib/usb/libusb.a(usbhiddevice.o)
                0x000000000002d32c                CUSBHIDDevice::CUSBHIDDevice(CUSBFunction*, unsigned int)
                0x000000000002d32c                CUSBHIDDevice::CUSBHIDDevice(CUSBFunction*, unsigned int)
                0x000000000002d378                CUSBHIDDevice::~CUSBHIDDevice()
                0x000000000002d378                CUSBHIDDevice::~CUSBHIDDevice()
                0x000000000002d3dc                CUSBHIDDevice::~CUSBHIDDevice()
                0x000000000002d3fc                CUSBHIDDevice::StartRequest()
                0x000000000002d4f4                CUSBHIDDevice::Configure(unsigned int)
                0x000000000002d6fc                CUSBHIDDevice::CompletionRoutine(CUSBRequest*)
                0x000000000002d7f0                CUSBHIDDevice::CompletionStub(CUSBRequest*, void*, void*)
 .text          0x000000000002d838      0x224 ../../lib/usb/libusb.a(usbmouse.o)
                0x000000000002d838                CUSBMouseDevice::~CUSBMouseDevice()
                0x000000000002d838                CUSBMouseDevice::~CUSBMouseDevice()
                0x000000000002d86c                CUSBMouseDevice::~CUSBMouseDevice()
                0x000000000002d8ac                CUSBMouseDevice::ReportHandler(unsigned char const*)
                0x000000000002d908                CUSBMouseDevice::CUSBMouseDevice(CUSBFunction*)
                0x000000000002d908                CUSBMouseDevice::CUSBMouseDevice(CUSBFunction*)
                0x000000000002d93c                CUSBMouseDevice::Setup(unsigned int, unsigned int)
                0x000000000002d944                CUSBMouseDevice::RegisterEventHandler(void (*)(TMouseEvent, unsigned int, unsigned int, unsigned int))
                0x000000000002d94c                CUSBMouseDevice::SetCursor(unsigned int, unsigned int)
                0x000000000002d954                CUSBMouseDevice::ShowCursor(int)
                0x000000000002d95c                CUSBMouseDevice::RegisterStatusHandler(void (*)(unsigned int, int, int))
                0x000000000002d9b0                CUSBMouseDevice::Configure()
 .text          0x000000000002da5c      0xaa0 ../../lib/usb/libusb.a(usbgamepad.o)
                0x000000000002da5c                CUSBGamePadDevice::~CUSBGamePadDevice()
                0x000000000002da5c                CUSBGamePadDevice::~CUSBGamePadDevice()
                0x000000000002daa0                CUSBGamePadDevice::~CUSBGamePadDevice()
                0x000000000002dac0                CUSBGamePadDevice::CUSBGamePadDevice(CUSBFunction*)
                0x000000000002dac0                CUSBGamePadDevice::CUSBGamePadDevice(CUSBFunction*)
                0x000000000002db40                CUSBGamePadDevice::RegisterStatusHandler(void (*)(unsigned int, TGamePadState const*))
                0x000000000002db94                CUSBGamePadDevice::BitGetUnsigned(void const*, unsigned int, unsigned int)
                0x000000000002dc84                CUSBGamePadDevice::BitGetSigned(void const*, unsigned int, unsigned int)
                0x000000000002dcac                CUSBGamePadDevice::DecodeReport(unsigned char const*)
                0x000000000002e0d8                CUSBGamePadDevice::GetReport()
                0x000000000002e1a4                CUSBGamePadDevice::ReportHandler(unsigned char const*)
                0x000000000002e1dc                CUSBGamePadDevice::PS3Configure()
                0x000000000002e2b4                CUSBGamePadDevice::Configure()
 .text          0x000000000002e4fc      0x600 ../../lib/usb/libusb.a(usbfunction.o)
                0x000000000002e4fc                CUSBFunction::Initialize()
                0x000000000002e504                CUSBFunction::~CUSBFunction()
                0x000000000002e504                CUSBFunction::~CUSBFunction()
                0x000000000002e55c                CUSBFunction::~CUSBFunction()
                0x000000000002e57c                CUSBFunction::CUSBFunction(CUSBDevice*, CUSBConfigurationParser*)
                0x000000000002e57c                CUSBFunction::CUSBFunction(CUSBDevice*, CUSBConfigurationParser*)
                0x000000000002e640                CUSBFunction::CUSBFunction(CUSBFunction*)
                0x000000000002e640                CUSBFunction::CUSBFunction(CUSBFunction*)
                0x000000000002e73c                CUSBFunction::GetInterfaceName() const
                0x000000000002e7b4                CUSBFunction::GetNumEndpoints() const
                0x000000000002e7f4                CUSBFunction::GetDevice() const
                0x000000000002e834                CUSBFunction::GetEndpoint0() const
                0x000000000002e878                CUSBFunction::GetHost() const
                0x000000000002e8bc                CUSBFunction::Configure()
                0x000000000002e980                CUSBFunction::GetDescriptor(unsigned char)
                0x000000000002e9cc                CUSBFunction::ConfigurationError(char const*) const
                0x000000000002ea3c                CUSBFunction::GetInterfaceNumber() const
                0x000000000002ea7c                CUSBFunction::GetInterfaceSubClass() const
                0x000000000002eabc                CUSBFunction::GetInterfaceProtocol() const
 .text          0x000000000002eafc      0x104 ../../lib/usb/libusb.a(dwhciframeschednsplit.o)
                0x000000000002eafc                CDWHCIFrameSchedulerNoSplit::~CDWHCIFrameSchedulerNoSplit()
                0x000000000002eafc                CDWHCIFrameSchedulerNoSplit::~CDWHCIFrameSchedulerNoSplit()
                0x000000000002eb00                CDWHCIFrameSchedulerNoSplit::IsOddFrame() const
                0x000000000002eb0c                CDWHCIFrameSchedulerNoSplit::~CDWHCIFrameSchedulerNoSplit()
                0x000000000002eb24                CDWHCIFrameSchedulerNoSplit::StartSplit()
                0x000000000002eb3c                CDWHCIFrameSchedulerNoSplit::CompleteSplit()
                0x000000000002eb60                CDWHCIFrameSchedulerNoSplit::TransactionComplete(unsigned int)
                0x000000000002eb78                CDWHCIFrameSchedulerNoSplit::WaitForFrame()
                0x000000000002ebe4                CDWHCIFrameSchedulerNoSplit::CDWHCIFrameSchedulerNoSplit(int)
                0x000000000002ebe4                CDWHCIFrameSchedulerNoSplit::CDWHCIFrameSchedulerNoSplit(int)
 .text          0x000000000002ec00      0x384 ../../lib/usb/libusb.a(usbprinter.o)
                0x000000000002ec00                CUSBPrinterDevice::~CUSBPrinterDevice()
                0x000000000002ec00                CUSBPrinterDevice::~CUSBPrinterDevice()
                0x000000000002ec74                CUSBPrinterDevice::~CUSBPrinterDevice()
                0x000000000002ec94                CUSBPrinterDevice::Write(void const*, unsigned int)
                0x000000000002ed3c                CUSBPrinterDevice::CUSBPrinterDevice(CUSBFunction*)
                0x000000000002ed3c                CUSBPrinterDevice::CUSBPrinterDevice(CUSBFunction*)
                0x000000000002ed6c                CUSBPrinterDevice::Configure()
 .text          0x000000000002ef84      0x648 ../../lib/usb/libusb.a(usbbluetooth.o)
                0x000000000002ef84                CUSBBluetoothDevice::~CUSBBluetoothDevice()
                0x000000000002ef84                CUSBBluetoothDevice::~CUSBBluetoothDevice()
                0x000000000002f040                CUSBBluetoothDevice::~CUSBBluetoothDevice()
                0x000000000002f060                CUSBBluetoothDevice::CUSBBluetoothDevice(CUSBFunction*)
                0x000000000002f060                CUSBBluetoothDevice::CUSBBluetoothDevice(CUSBFunction*)
                0x000000000002f09c                CUSBBluetoothDevice::SendHCICommand(void const*, unsigned int)
                0x000000000002f0f8                CUSBBluetoothDevice::StartRequest()
                0x000000000002f1e4                CUSBBluetoothDevice::RegisterHCIEventHandler(void (*)(void const*, unsigned int))
                0x000000000002f228                CUSBBluetoothDevice::CompletionRoutine(CUSBRequest*)
                0x000000000002f35c                CUSBBluetoothDevice::CompletionStub(CUSBRequest*, void*, void*)
                0x000000000002f3a4                CUSBBluetoothDevice::Configure()
 .text          0x000000000002f5cc      0x718 ../../lib/usb/libusb.a(usbmidi.o)
                0x000000000002f5cc                CUSBMIDIDevice::~CUSBMIDIDevice()
                0x000000000002f5cc                CUSBMIDIDevice::~CUSBMIDIDevice()
                0x000000000002f630                CUSBMIDIDevice::~CUSBMIDIDevice()
                0x000000000002f650                CUSBMIDIDevice::CUSBMIDIDevice(CUSBFunction*)
                0x000000000002f650                CUSBMIDIDevice::CUSBMIDIDevice(CUSBFunction*)
                0x000000000002f688                CUSBMIDIDevice::RegisterPacketHandler(void (*)(unsigned int, unsigned char*, unsigned int))
                0x000000000002f6dc                CUSBMIDIDevice::StartRequest()
                0x000000000002f7dc                CUSBMIDIDevice::CompletionRoutine(CUSBRequest*)
                0x000000000002f9d0                CUSBMIDIDevice::CompletionStub(CUSBRequest*, void*, void*)
                0x000000000002fa18                CUSBMIDIDevice::TimerHandler(unsigned int)
                0x000000000002fa58                CUSBMIDIDevice::TimerStub(unsigned int, void*, void*)
                0x000000000002faa0                CUSBMIDIDevice::Configure()
 .text          0x000000000002fce4      0x5a8 ../../lib/usb/libusb.a(usbcdcethernet.o)
                0x000000000002fce4                CUSBCDCEthernetDevice::GetMACAddress() const
                0x000000000002fcec                CUSBCDCEthernetDevice::~CUSBCDCEthernetDevice()
                0x000000000002fcec                CUSBCDCEthernetDevice::~CUSBCDCEthernetDevice()
                0x000000000002fd68                CUSBCDCEthernetDevice::~CUSBCDCEthernetDevice()
                0x000000000002fd88                CUSBCDCEthernetDevice::SendFrame(void const*, unsigned int)
                0x000000000002fe20                CUSBCDCEthernetDevice::ReceiveFrame(void*, unsigned int*)
                0x000000000002ff18                CUSBCDCEthernetDevice::CUSBCDCEthernetDevice(CUSBFunction*)
                0x000000000002ff18                CUSBCDCEthernetDevice::CUSBCDCEthernetDevice(CUSBFunction*)
                0x000000000002ff4c                CUSBCDCEthernetDevice::InitMACAddress(unsigned char)
                0x0000000000030054                CUSBCDCEthernetDevice::Configure()
 .text          0x000000000003028c      0x360 ../../lib/usb/libusb.a(usbconfigparser.o)
                0x000000000003028c                CUSBConfigurationParser::CUSBConfigurationParser(void const*, unsigned int)
                0x000000000003028c                CUSBConfigurationParser::CUSBConfigurationParser(void const*, unsigned int)
                0x00000000000303e8                CUSBConfigurationParser::CUSBConfigurationParser(CUSBConfigurationParser*)
                0x00000000000303e8                CUSBConfigurationParser::CUSBConfigurationParser(CUSBConfigurationParser*)
                0x0000000000030444                CUSBConfigurationParser::~CUSBConfigurationParser()
                0x0000000000030444                CUSBConfigurationParser::~CUSBConfigurationParser()
                0x0000000000030448                CUSBConfigurationParser::IsValid() const
                0x0000000000030450                CUSBConfigurationParser::GetDescriptor(unsigned char)
                0x0000000000030528                CUSBConfigurationParser::GetCurrentDescriptor()
                0x0000000000030580                CUSBConfigurationParser::Error(char const*) const
 .text          0x00000000000305ec      0x5c4 ../../lib/usb/libusb.a(usbstring.o)
                0x00000000000305ec                CUSBString::CUSBString(CUSBDevice*)
                0x00000000000305ec                CUSBString::CUSBString(CUSBDevice*)
                0x0000000000030664                CUSBString::CUSBString(CUSBString*)
                0x0000000000030664                CUSBString::CUSBString(CUSBString*)
                0x0000000000030730                CUSBString::~CUSBString()
                0x0000000000030730                CUSBString::~CUSBString()
                0x0000000000030770                CUSBString::GetFromDescriptor(unsigned char, unsigned short)
                0x00000000000309fc                CUSBString::Get() const
                0x0000000000030a04                CUSBString::GetLanguageID()
 .text          0x0000000000030bb0      0x918 ../../lib/usb/libusb.a(smsc951x.o)
                0x0000000000030bb0                CSMSC951xDevice::GetMACAddress() const
                0x0000000000030bb8                CSMSC951xDevice::~CSMSC951xDevice()
                0x0000000000030bb8                CSMSC951xDevice::~CSMSC951xDevice()
                0x0000000000030c48                CSMSC951xDevice::~CSMSC951xDevice()
                0x0000000000030c68                CSMSC951xDevice::ReceiveFrame(void*, unsigned int*)
                0x0000000000030dfc                CSMSC951xDevice::SendFrame(void const*, unsigned int)
                0x0000000000030ee4                CSMSC951xDevice::CSMSC951xDevice(CUSBFunction*)
                0x0000000000030ee4                CSMSC951xDevice::CSMSC951xDevice(CUSBFunction*)
                0x0000000000030f28                CSMSC951xDevice::WriteReg(unsigned int, unsigned int)
                0x0000000000030f90                CSMSC951xDevice::ReadReg(unsigned int, unsigned int*)
                0x0000000000030ff8                CSMSC951xDevice::DumpReg(char const*, unsigned int)
                0x000000000003106c                CSMSC951xDevice::DumpRegs()
                0x0000000000031204                CSMSC951xDevice::Configure()
 .text          0x00000000000314c8      0x2bc ../../lib/usb/libusb.a(macaddress.o)
                0x00000000000314c8                CMACAddress::CMACAddress()
                0x00000000000314c8                CMACAddress::CMACAddress()
                0x00000000000314d4                CMACAddress::~CMACAddress()
                0x00000000000314d4                CMACAddress::~CMACAddress()
                0x00000000000314d8                CMACAddress::operator==(CMACAddress const&) const
                0x0000000000031558                CMACAddress::operator!=(CMACAddress const&) const
                0x000000000003156c                CMACAddress::Set(unsigned char const*)
                0x00000000000315b4                CMACAddress::CMACAddress(unsigned char const*)
                0x00000000000315b4                CMACAddress::CMACAddress(unsigned char const*)
                0x00000000000315c8                CMACAddress::SetBroadcast()
                0x00000000000315ec                CMACAddress::Get() const
                0x0000000000031620                CMACAddress::CopyTo(unsigned char*) const
                0x000000000003168c                CMACAddress::IsBroadcast() const
                0x00000000000316e8                CMACAddress::GetSize() const
                0x00000000000316f0                CMACAddress::Format(CString*) const
 .text          0x0000000000031784       0xd8 ../../lib/usb/libusb.a(netdevice.o)
                0x0000000000031784                CNetDevice::CNetDevice(CUSBFunction*)
                0x0000000000031784                CNetDevice::CNetDevice(CUSBFunction*)
                0x00000000000317a4                CNetDevice::~CNetDevice()
                0x00000000000317a4                CNetDevice::~CNetDevice()
                0x00000000000317c4                CNetDevice::~CNetDevice()
                0x00000000000317f0                CNetDevice::AddNetDevice()
 .text          0x000000000003185c      0x364 ../../lib/input/libinput.a(keyboardbehaviour.o)
                0x000000000003185c                CKeyboardBehaviour::CKeyboardBehaviour()
                0x000000000003185c                CKeyboardBehaviour::CKeyboardBehaviour()
                0x000000000003188c                CKeyboardBehaviour::~CKeyboardBehaviour()
                0x000000000003188c                CKeyboardBehaviour::~CKeyboardBehaviour()
                0x00000000000318b4                CKeyboardBehaviour::RegisterKeyPressedHandler(void (*)(char const*))
                0x00000000000318ec                CKeyboardBehaviour::RegisterSelectConsoleHandler(void (*)(unsigned int))
                0x0000000000031924                CKeyboardBehaviour::RegisterShutdownHandler(void (*)())
                0x000000000003195c                CKeyboardBehaviour::GetLEDStatus() const
                0x0000000000031964                CKeyboardBehaviour::GenerateKeyEvent(unsigned char)
                0x0000000000031a44                CKeyboardBehaviour::KeyPressed(unsigned char)
                0x0000000000031a80                CKeyboardBehaviour::KeyReleased(unsigned char)
                0x0000000000031ae8                CKeyboardBehaviour::TimerHandler(unsigned int)
                0x0000000000031b78                CKeyboardBehaviour::TimerStub(unsigned int, void*, void*)
 .text          0x0000000000031bc0      0x3e0 ../../lib/input/libinput.a(keymap.o)
                0x0000000000031bc0                CKeyMap::~CKeyMap()
                0x0000000000031bc0                CKeyMap::~CKeyMap()
                0x0000000000031bc4                CKeyMap::ClearTable(unsigned char)
                0x0000000000031bfc                CKeyMap::SetEntry(unsigned char, unsigned char, unsigned short)
                0x0000000000031c54                CKeyMap::Translate(unsigned char, unsigned char)
                0x0000000000031d78                CKeyMap::GetString(unsigned short, unsigned char, char*) const
                0x0000000000031e38                CKeyMap::GetLEDStatus() const
                0x0000000000031e68                CKeyMap::LookupDefaultMap(char const*)
                0x0000000000031f00                CKeyMap::CKeyMap()
                0x0000000000031f00                CKeyMap::CKeyMap()
 .text          0x0000000000031fa0      0x4f4 ../../lib/input/libinput.a(mousebehaviour.o)
                0x0000000000031fa0                CMouseBehaviour::CMouseBehaviour()
                0x0000000000031fa0                CMouseBehaviour::CMouseBehaviour()
                0x0000000000031fc4                CMouseBehaviour::~CMouseBehaviour()
                0x0000000000031fc4                CMouseBehaviour::~CMouseBehaviour()
                0x0000000000031fc8                CMouseBehaviour::Setup(unsigned int, unsigned int)
                0x000000000003211c                CMouseBehaviour::RegisterEventHandler(void (*)(TMouseEvent, unsigned int, unsigned int, unsigned int))
                0x0000000000032170                CMouseBehaviour::SetCursorState(unsigned int, unsigned int, int)
                0x00000000000321ec                CMouseBehaviour::SetCursor(unsigned int, unsigned int)
                0x0000000000032298                CMouseBehaviour::ShowCursor(int)
                0x0000000000032310                CMouseBehaviour::MouseStatusChanged(unsigned int, int, int)
 .text          0x0000000000032494      0x3f8 ../../lib/input/libinput.a(touchscreen.o)
                0x0000000000032494                CTouchScreenDevice::~CTouchScreenDevice()
                0x0000000000032494                CTouchScreenDevice::~CTouchScreenDevice()
                0x00000000000324bc                CTouchScreenDevice::~CTouchScreenDevice()
                0x00000000000324f0                CTouchScreenDevice::CTouchScreenDevice()
                0x00000000000324f0                CTouchScreenDevice::CTouchScreenDevice()
                0x000000000003251c                CTouchScreenDevice::Initialize()
                0x0000000000032630                CTouchScreenDevice::Update()
                0x0000000000032838                CTouchScreenDevice::RegisterEventHandler(void (*)(TTouchScreenEvent, unsigned int, unsigned int, unsigned int))
 .text          0x000000000003288c      0x2a8 ../../lib/fs/libfs.a(partitionmanager.o)
                0x000000000003288c                CPartitionManager::CPartitionManager(CDevice*, char const*)
                0x000000000003288c                CPartitionManager::CPartitionManager(CDevice*, char const*)
                0x00000000000328bc                CPartitionManager::~CPartitionManager()
                0x00000000000328bc                CPartitionManager::~CPartitionManager()
                0x0000000000032908                CPartitionManager::Initialize()
 .text          0x0000000000032b34      0x300 ../../lib/fs/libfs.a(partition.o)
                0x0000000000032b34                CPartition::Read(void*, unsigned int)
                0x0000000000032be4                CPartition::Write(void const*, unsigned int)
                0x0000000000032c94                CPartition::~CPartition()
                0x0000000000032c94                CPartition::~CPartition()
                0x0000000000032cbc                CPartition::~CPartition()
                0x0000000000032cf0                CPartition::Seek(unsigned long long)
                0x0000000000032dc4                CPartition::CPartition(CDevice*, unsigned int, unsigned int)
                0x0000000000032dc4                CPartition::CPartition(CDevice*, unsigned int, unsigned int)
 .text          0x0000000000032e34      0x210 ../../lib/libcircle8.a(actled.o)
                0x0000000000032e34                CActLED::~CActLED()
                0x0000000000032e34                CActLED::~CActLED()
                0x0000000000032e48                CActLED::On()
                0x0000000000032e88                CActLED::Off()
                0x0000000000032ec8                CActLED::CActLED()
                0x0000000000032ec8                CActLED::CActLED()
                0x0000000000032fe8                CActLED::Blink(unsigned int, unsigned int, unsigned int)
                0x0000000000033034                CActLED::Get()
 .text          0x0000000000033044      0x1c8 ../../lib/libcircle8.a(bcmpropertytags.o)
                0x0000000000033044                CBcmPropertyTags::CBcmPropertyTags()
                0x0000000000033044                CBcmPropertyTags::CBcmPropertyTags()
                0x000000000003305c                CBcmPropertyTags::~CBcmPropertyTags()
                0x000000000003305c                CBcmPropertyTags::~CBcmPropertyTags()
                0x0000000000033070                CBcmPropertyTags::GetTags(void*, unsigned int)
                0x0000000000033160                CBcmPropertyTags::GetTag(unsigned int, void*, unsigned int, unsigned int)
 .text          0x000000000003320c      0xca0 ../../lib/libcircle8.a(gpiopin.o)
                0x000000000003320c                CGPIOPin::~CGPIOPin()
                0x000000000003320c                CGPIOPin::~CGPIOPin()
                0x0000000000033210                CGPIOPin::~CGPIOPin()
                0x0000000000033228                CGPIOPin::Write(unsigned int)
                0x00000000000332c4                CGPIOPin::Read() const
                0x000000000003332c                CGPIOPin::Invert()
                0x000000000003336c                CGPIOPin::ConnectInterrupt(void (*)(void*), void*)
                0x0000000000033470                CGPIOPin::DisconnectInterrupt()
                0x0000000000033550                CGPIOPin::EnableInterrupt(TGPIOInterrupt)
                0x0000000000033680                CGPIOPin::DisableInterrupt()
                0x0000000000033740                CGPIOPin::EnableInterrupt2(TGPIOInterrupt)
                0x0000000000033870                CGPIOPin::DisableInterrupt2()
                0x0000000000033934                CGPIOPin::ReadAll()
                0x0000000000033944                CGPIOPin::SetPullUpMode(unsigned int)
                0x00000000000339e4                CGPIOPin::SetAlternateFunction(unsigned int)
                0x0000000000033abc                CGPIOPin::SetMode(TGPIOMode, int)
                0x0000000000033c8c                CGPIOPin::CGPIOPin(unsigned int, TGPIOMode, CGPIOManager*)
                0x0000000000033c8c                CGPIOPin::CGPIOPin(unsigned int, TGPIOMode, CGPIOManager*)
                0x0000000000033d40                CGPIOPin::InterruptHandler()
                0x0000000000033df8                CGPIOPin::DisableAllInterrupts(unsigned int)
 .text.startup  0x0000000000033eac       0x14 ../../lib/libcircle8.a(gpiopin.o)
 .text          0x0000000000033ec0       0xb8 ../../lib/libcircle8.a(libstub.o)
                0x0000000000033ec0                __aeabi_uidiv
                0x0000000000033ed0                __aeabi_uidivmod
                0x0000000000033eec                __aeabi_idiv
                0x0000000000033ef0                __aeabi_idivmod
                0x0000000000033f08                _lock_mutex_mmu
                0x0000000000033f30                _unlock_mutex_mmu
                0x0000000000033f3c                _lock_mutex_swp
                0x0000000000033f50                _lock_mutex_simple
                0x0000000000033f6c                _unlock_mutex_simple
 .text          0x0000000000033f78      0x3a0 ../../lib/libcircle8.a(memory.o)
                0x0000000000033f78                CMemorySystem::~CMemorySystem()
                0x0000000000033f78                CMemorySystem::~CMemorySystem()
                0x0000000000033ff8                CMemorySystem::GetMemSize() const
                0x0000000000034000                CMemorySystem::SetPageTable0(CPageTable*, unsigned int)
                0x000000000003406c                CMemorySystem::SetPageTable0(unsigned int, unsigned int)
                0x00000000000340c0                CMemorySystem::GetTTBR0() const
                0x00000000000340f8                CMemorySystem::GetContextID() const
                0x0000000000034130                CMemorySystem::EnableMMU()
                0x000000000003423c                CMemorySystem::CMemorySystem(int)
                0x000000000003423c                CMemorySystem::CMemorySystem(int)
 .text          0x0000000000034318       0x18 ../../lib/libcircle8.a(new.o)
                0x0000000000034318                operator new(unsigned int)
                0x000000000003431c                operator new[](unsigned int)
                0x0000000000034320                operator delete(void*)
                0x0000000000034324                operator delete[](void*)
                0x0000000000034328                operator delete(void*, unsigned int)
                0x000000000003432c                operator delete[](void*, unsigned int)
 .text          0x0000000000034330       0x18 ../../lib/libcircle8.a(purecall.o)
                0x0000000000034330                __cxa_pure_virtual
 .text          0x0000000000034348      0x160 ../../lib/libcircle8.a(synchronize.o)
                0x0000000000034348                EnterCritical
                0x00000000000343f8                LeaveCritical
                0x000000000003444c                CleanAndInvalidateDataCacheRange
                0x0000000000034488                SyncDataAndInstructionCache
 .text          0x00000000000344a8       0xe4 ../../lib/libcircle8.a(sysinit.o)
                0x00000000000344a8                __aeabi_atexit
                0x00000000000344ac                halt
                0x00000000000344b8                reboot
                0x00000000000344e4                sysinit
 .text          0x000000000003458c      0xbe8 ../../lib/libcircle8.a(timer.o)
                0x00000000000345c4                CTimer::CTimer(CInterruptSystem*)
                0x00000000000345c4                CTimer::CTimer(CInterruptSystem*)
                0x0000000000034644                CTimer::~CTimer()
                0x0000000000034644                CTimer::~CTimer()
                0x000000000003472c                CTimer::SetTimeZone(int)
                0x0000000000034750                CTimer::GetTimeZone() const
                0x0000000000034758                CTimer::SetTime(unsigned int, int)
                0x00000000000347d4                CTimer::GetClockTicks()
                0x00000000000347f0                CTimer::GetTicks() const
                0x00000000000347f8                CTimer::GetUptime() const
                0x0000000000034800                CTimer::GetTime() const
                0x0000000000034808                CTimer::GetUniversalTime() const
                0x0000000000034828                CTimer::GetTimeString()
                0x0000000000034a2c                CTimer::StartKernelTimer(unsigned int, void (*)(unsigned int, void*, void*), void*, void*)
                0x0000000000034b80                CTimer::CancelKernelTimer(unsigned int)
                0x0000000000034c40                CTimer::PollKernelTimers()
                0x0000000000034da8                CTimer::InterruptHandler()
                0x0000000000034ec8                CTimer::InterruptHandler(void*)
                0x0000000000034f08                CTimer::TuneMsDelay()
                0x0000000000034fb4                CTimer::Initialize()
                0x000000000003503c                CTimer::SimpleMsDelay(unsigned int)
                0x0000000000035058                CTimer::SimpleusDelay(unsigned int)
                0x0000000000035064                CTimer::IsLeapYear(unsigned int)
                0x00000000000350bc                CTimer::GetDaysOfMonth(unsigned int, unsigned int)
                0x0000000000035138                CTimer::Get()
 .text          0x0000000000035174      0x464 ../../lib/libcircle8.a(util.o)
                0x0000000000035174                memset
                0x0000000000035198                memcmp
                0x00000000000351f4                strlen
                0x000000000003521c                strcmp
                0x000000000003528c                strcpy
                0x00000000000352b8                strncpy
                0x0000000000035300                strcat
                0x0000000000035344                strchr
                0x0000000000035380                strtok_r
                0x0000000000035458                strtoul
                0x00000000000355d4                char2int
 .text          0x00000000000355d8       0x5c ../../lib/libcircle8.a(util_fast.o)
                0x00000000000355d8                memcpy
 .text          0x0000000000035634       0x40 ../../lib/libcircle8.a(device.o)
                0x0000000000035634                CDevice::~CDevice()
                0x0000000000035634                CDevice::~CDevice()
                0x0000000000035638                CDevice::Read(void*, unsigned int)
                0x0000000000035638                CDevice::Write(void const*, unsigned int)
                0x0000000000035640                CDevice::Seek(unsigned long long)
                0x000000000003564c                CDevice::~CDevice()
                0x0000000000035664                CDevice::CDevice()
                0x0000000000035664                CDevice::CDevice()
 .text          0x0000000000035674      0x4e8 ../../lib/libcircle8.a(koptions.o)
                0x00000000000356d8                CKernelOptions::~CKernelOptions()
                0x00000000000356d8                CKernelOptions::~CKernelOptions()
                0x00000000000356ec                CKernelOptions::GetWidth() const
                0x00000000000356f4                CKernelOptions::GetHeight() const
                0x00000000000356fc                CKernelOptions::GetLogDevice() const
                0x0000000000035708                CKernelOptions::GetLogLevel() const
                0x0000000000035710                CKernelOptions::GetKeyMap() const
                0x0000000000035718                CKernelOptions::GetUSBPowerDelay() const
                0x0000000000035720                CKernelOptions::GetCPUSpeed() const
                0x0000000000035728                CKernelOptions::GetSoCMaxTemp() const
                0x0000000000035730                CKernelOptions::Get()
                0x0000000000035740                CKernelOptions::GetToken()
                0x00000000000357bc                CKernelOptions::CKernelOptions()
                0x00000000000357bc                CKernelOptions::CKernelOptions()
                0x0000000000035b04                CKernelOptions::GetOptionValue(char*)
                0x0000000000035b3c                CKernelOptions::GetDecimal(char*)
 .text          0x0000000000035b5c      0x204 ../../lib/libcircle8.a(pagetable.o)
                0x0000000000035b5c                CPageTable::CPageTable()
                0x0000000000035b5c                CPageTable::CPageTable()
                0x0000000000035c08                CPageTable::CPageTable(unsigned int)
                0x0000000000035c08                CPageTable::CPageTable(unsigned int)
                0x0000000000035d30                CPageTable::~CPageTable()
                0x0000000000035d30                CPageTable::~CPageTable()
                0x0000000000035d54                CPageTable::GetBaseAddress() const
 .text          0x0000000000035d60     0x1220 ../../lib/libcircle8.a(screen.o)
                0x0000000000035d60                CScreenDevice::~CScreenDevice()
                0x0000000000035d60                CScreenDevice::~CScreenDevice()
                0x0000000000035dd8                CScreenDevice::~CScreenDevice()
                0x0000000000035ebc                CScreenDevice::CScreenDevice(unsigned int, unsigned int, int)
                0x0000000000035ebc                CScreenDevice::CScreenDevice(unsigned int, unsigned int, int)
                0x0000000000035f30                CScreenDevice::GetWidth() const
                0x0000000000035f38                CScreenDevice::GetDepth() const
                0x0000000000035f40                CScreenDevice::GetHeight() const
                0x0000000000035f48                CScreenDevice::GetBuffer() const
                0x0000000000035f50                CScreenDevice::SetPalette(unsigned char, unsigned short)
                0x0000000000035f58                CScreenDevice::SetPalette(unsigned char, unsigned int)
                0x0000000000035f60                CScreenDevice::UpdatePalette()
                0x0000000000035f68                CScreenDevice::GetColumns() const
                0x0000000000035f88                CScreenDevice::GetRows() const
                0x0000000000035fa8                CScreenDevice::GetStatus()
                0x0000000000036018                CScreenDevice::SetXY(int, int)
                0x0000000000036024                CScreenDevice::SetStatus(TScreenStatus)
                0x0000000000036138                CScreenDevice::CarriageReturn()
                0x0000000000036144                CScreenDevice::CursorHome()
                0x0000000000036154                CScreenDevice::CursorLeft()
                0x00000000000361c0                CScreenDevice::CursorMove(unsigned int, unsigned int)
                0x0000000000036220                CScreenDevice::CursorUp()
                0x0000000000036250                CScreenDevice::DeleteChars(unsigned int)
                0x0000000000036254                CScreenDevice::DeleteLines(unsigned int)
                0x0000000000036258                CScreenDevice::InsertLines(unsigned int)
                0x000000000003625c                CScreenDevice::InsertMode(int)
                0x0000000000036264                CScreenDevice::ReverseScroll()
                0x0000000000036268                CScreenDevice::SetCursorMode(int)
                0x0000000000036270                CScreenDevice::SetScrollRegion(unsigned int, unsigned int)
                0x00000000000362f0                CScreenDevice::SetStandoutMode(unsigned int)
                0x0000000000036390                CScreenDevice::Scroll()
                0x0000000000036428                CScreenDevice::CursorDown()
                0x0000000000036474                CScreenDevice::NewLine()
                0x0000000000036480                CScreenDevice::CursorRight()
                0x00000000000364bc                CScreenDevice::Tabulator()
                0x0000000000036508                CScreenDevice::DisplayChar(char, unsigned int, unsigned int, unsigned char)
                0x00000000000365c4                CScreenDevice::DisplayChar(char)
                0x00000000000365fc                CScreenDevice::EraseChar(unsigned int, unsigned int)
                0x000000000003666c                CScreenDevice::ClearLineEnd()
                0x0000000000036714                CScreenDevice::EraseChars(unsigned int)
                0x0000000000036720                CScreenDevice::ClearDisplayEnd()
                0x000000000003679c                CScreenDevice::Write(char)
                0x0000000000036c88                CScreenDevice::Write(void const*, unsigned int)
                0x0000000000036d34                CScreenDevice::Initialize()
                0x0000000000036ecc                CScreenDevice::InvertCursor()
                0x0000000000036edc                CScreenDevice::SetPixel(unsigned int, unsigned int, unsigned char)
                0x0000000000036eec                CScreenDevice::GetPixel(unsigned int, unsigned int)
                0x0000000000036f20                CScreenDevice::Rotor(unsigned int, unsigned int)
 .text          0x0000000000036f80       0x90 ../../lib/libcircle8.a(assert.o)
                0x0000000000036f80                assertion_failed
 .text          0x0000000000037010       0xa8 ../../lib/libcircle8.a(chargenerator.o)
                0x0000000000037010                CCharGenerator::CCharGenerator()
                0x0000000000037010                CCharGenerator::CCharGenerator()
                0x000000000003701c                CCharGenerator::~CCharGenerator()
                0x000000000003701c                CCharGenerator::~CCharGenerator()
                0x0000000000037020                CCharGenerator::GetCharWidth() const
                0x0000000000037028                CCharGenerator::GetCharHeight() const
                0x0000000000037030                CCharGenerator::GetUnderline() const
                0x0000000000037038                CCharGenerator::GetPixel(char, unsigned int, unsigned int) const
 .text          0x00000000000370b8      0x194 ../../lib/libcircle8.a(debug.o)
                0x00000000000370b8                debug_hexdump(void const*, unsigned int, char const*)
                0x00000000000371bc                debug_stacktrace(unsigned int const*, char const*)
 .text          0x000000000003724c      0x2ac ../../lib/libcircle8.a(devicenameservice.o)
                0x000000000003724c                CDeviceNameService::CDeviceNameService()
                0x000000000003724c                CDeviceNameService::CDeviceNameService()
                0x0000000000037298                CDeviceNameService::~CDeviceNameService()
                0x0000000000037298                CDeviceNameService::~CDeviceNameService()
                0x00000000000372fc                CDeviceNameService::AddDevice(char const*, CDevice*, int)
                0x00000000000373b8                CDeviceNameService::GetDevice(char const*, int)
                0x00000000000374c0                CDeviceNameService::Get()
 .text          0x00000000000374f8      0x46c ../../lib/libcircle8.a(logger.o)
                0x00000000000374f8                CLogger::CLogger(unsigned int, CTimer*)
                0x00000000000374f8                CLogger::CLogger(unsigned int, CTimer*)
                0x0000000000037540                CLogger::~CLogger()
                0x0000000000037540                CLogger::~CLogger()
                0x0000000000037570                CLogger::Get()
                0x0000000000037580                CLogger::Write(char const*)
                0x000000000003762c                CLogger::Read(void*, unsigned int)
                0x00000000000376fc                CLogger::WriteV(char const*, TLogSeverity, char const*, std::__va_list)
                0x00000000000378f0                CLogger::Write(char const*, TLogSeverity, char const*, ...)
                0x0000000000037920                CLogger::Initialize(CDevice*)
 .text          0x0000000000037964      0x9a4 ../../lib/libcircle8.a(serial.o)
                0x0000000000037964                CSerialDevice::Read(void*, unsigned int)
                0x0000000000037b2c                CSerialDevice::CSerialDevice(CInterruptSystem*, int)
                0x0000000000037b2c                CSerialDevice::CSerialDevice(CInterruptSystem*, int)
                0x0000000000037be8                CSerialDevice::Initialize(unsigned int)
                0x0000000000037da0                CSerialDevice::GetOptions() const
                0x0000000000037dac                CSerialDevice::SetOptions(unsigned int)
                0x0000000000037db8                CSerialDevice::Write(unsigned char)
                0x0000000000037ea0                CSerialDevice::Write(void const*, unsigned int)
                0x0000000000038058                CSerialDevice::InterruptHandler()
                0x00000000000381e8                CSerialDevice::InterruptStub(void*)
                0x0000000000038228                CSerialDevice::~CSerialDevice()
                0x0000000000038228                CSerialDevice::~CSerialDevice()
                0x00000000000382e4                CSerialDevice::~CSerialDevice()
 .text          0x0000000000038308      0xf1c ../../lib/libcircle8.a(string.o)
                0x0000000000038308                CString::~CString()
                0x0000000000038308                CString::~CString()
                0x0000000000038334                CString::~CString()
                0x00000000000383d4                CString::CString()
                0x00000000000383d4                CString::CString()
                0x00000000000383ec                CString::CString(char const*)
                0x00000000000383ec                CString::CString(char const*)
                0x000000000003842c                CString::operator char const*() const
                0x0000000000038444                CString::operator=(char const*)
                0x0000000000038488                CString::GetLength() const
                0x0000000000038498                CString::Append(char const*)
                0x000000000003851c                CString::Compare(char const*) const
                0x0000000000038524                CString::Find(char) const
                0x0000000000038564                CString::PutChar(char, unsigned int)
                0x00000000000385a4                CString::PutString(char const*)
                0x00000000000385e8                CString::ReserveSpace(unsigned int)
                0x00000000000385f4                CString::ntoa(char*, unsigned long, unsigned int, int)
                0x00000000000386b4                CString::ftoa(char*, double, unsigned int)
                0x0000000000038950                CString::FormatV(char const*, std::__va_list)
                0x00000000000391f4                CString::Format(char const*, ...)
 *fill*         0x0000000000039224        0x4 
 .text          0x0000000000039228        0xc ../../lib/libcircle8.a(delayloop.o)
                0x0000000000039228                DelayLoop
 .text          0x0000000000039234      0x258 ../../lib/libcircle8.a(exceptionhandler.o)
                0x0000000000039234                CExceptionHandler::CExceptionHandler()
                0x0000000000039234                CExceptionHandler::CExceptionHandler()
                0x00000000000392c0                CExceptionHandler::~CExceptionHandler()
                0x00000000000392c0                CExceptionHandler::~CExceptionHandler()
                0x00000000000392d4                CExceptionHandler::Throw(unsigned int)
                0x0000000000039314                CExceptionHandler::Throw(unsigned int, TAbortFrame*)
                0x00000000000393f0                CExceptionHandler::Get()
                0x0000000000039428                ExceptionHandler
 .text          0x000000000003948c      0x130 ../../lib/libcircle8.a(exceptionstub.o)
                0x000000000003948c                UndefinedInstructionStub
                0x00000000000394cc                PrefetchAbortStub
                0x000000000003950c                DataAbortStub
                0x000000000003954c                IRQStub
                0x000000000003955c                FIQStub
 .text          0x00000000000395bc      0x55c ../../lib/libcircle8.a(interrupt.o)
                0x00000000000395bc                CInterruptSystem::CInterruptSystem()
                0x00000000000395bc                CInterruptSystem::CInterruptSystem()
                0x00000000000395f4                CInterruptSystem::~CInterruptSystem()
                0x00000000000395f4                CInterruptSystem::~CInterruptSystem()
                0x0000000000039608                CInterruptSystem::Initialize()
                0x0000000000039670                CInterruptSystem::DisconnectFIQ()
                0x00000000000396c8                CInterruptSystem::EnableIRQ(unsigned int)
                0x0000000000039744                CInterruptSystem::ConnectIRQ(unsigned int, void (*)(void*), void*)
                0x00000000000397b4                CInterruptSystem::DisableIRQ(unsigned int)
                0x0000000000039830                CInterruptSystem::DisconnectIRQ(unsigned int)
                0x00000000000398ac                CInterruptSystem::EnableFIQ(unsigned int)
                0x00000000000398f8                CInterruptSystem::ConnectFIQ(unsigned int, void (*)(void*), void*)
                0x0000000000039988                CInterruptSystem::DisableFIQ()
                0x00000000000399a4                CInterruptSystem::Get()
                0x00000000000399dc                CInterruptSystem::CallIRQHandler(unsigned int)
                0x0000000000039a3c                CInterruptSystem::InterruptHandler()
                0x0000000000039b00                InterruptHandler
 .text          0x0000000000039b18      0x398 ../../lib/libcircle8.a(gpiomanager.o)
                0x0000000000039b18                CGPIOManager::CGPIOManager(CInterruptSystem*)
                0x0000000000039b18                CGPIOManager::CGPIOManager(CInterruptSystem*)
                0x0000000000039b44                CGPIOManager::~CGPIOManager()
                0x0000000000039b44                CGPIOManager::~CGPIOManager()
                0x0000000000039bcc                CGPIOManager::Initialize()
                0x0000000000039c4c                CGPIOManager::ConnectInterrupt(CGPIOPin*)
                0x0000000000039cfc                CGPIOManager::DisconnectInterrupt(CGPIOPin*)
                0x0000000000039dc0                CGPIOManager::InterruptHandler()
                0x0000000000039e74                CGPIOManager::InterruptStub(void*)
 .text          0x0000000000039eb0      0x9b4 ../../lib/libcircle8.a(pwmsoundbasedevice.o)
                0x0000000000039eb0                CPWMSoundBaseDevice::GetRange() const
                0x0000000000039eb8                CPWMSoundBaseDevice::Cancel()
                0x0000000000039f10                CPWMSoundBaseDevice::IsActive() const
                0x0000000000039f20                CPWMSoundBaseDevice::GetNextChunk()
                0x000000000003a038                CPWMSoundBaseDevice::Start()
                0x000000000003a22c                CPWMSoundBaseDevice::RunPWM()
                0x000000000003a2b8                CPWMSoundBaseDevice::StopPWM()
                0x000000000003a2f8                CPWMSoundBaseDevice::InterruptHandler()
                0x000000000003a488                CPWMSoundBaseDevice::InterruptStub(void*)
                0x000000000003a4c8                CPWMSoundBaseDevice::SetupDMAControlBlock(unsigned int)
                0x000000000003a560                CPWMSoundBaseDevice::CPWMSoundBaseDevice(CInterruptSystem*, unsigned int, unsigned int)
                0x000000000003a560                CPWMSoundBaseDevice::CPWMSoundBaseDevice(CInterruptSystem*, unsigned int, unsigned int)
                0x000000000003a730                CPWMSoundBaseDevice::~CPWMSoundBaseDevice()
                0x000000000003a730                CPWMSoundBaseDevice::~CPWMSoundBaseDevice()
                0x000000000003a844                CPWMSoundBaseDevice::~CPWMSoundBaseDevice()
 .text          0x000000000003a864      0x1f8 ../../lib/libcircle8.a(virtualgpiopin.o)
                0x000000000003a864                CVirtualGPIOPin::~CVirtualGPIOPin()
                0x000000000003a864                CVirtualGPIOPin::~CVirtualGPIOPin()
                0x000000000003a868                CVirtualGPIOPin::~CVirtualGPIOPin()
                0x000000000003a928                CVirtualGPIOPin::CVirtualGPIOPin(unsigned int)
                0x000000000003a928                CVirtualGPIOPin::CVirtualGPIOPin(unsigned int)
                0x000000000003aa14                CVirtualGPIOPin::Write(unsigned int)
                0x000000000003aa50                CVirtualGPIOPin::Invert()
 .text.startup  0x000000000003aa5c       0x14 ../../lib/libcircle8.a(virtualgpiopin.o)
 .text          0x000000000003aa70      0x408 ../../lib/libcircle8.a(machineinfo.o)
                0x000000000003aa70                CMachineInfo::CMachineInfo()
                0x000000000003aa70                CMachineInfo::CMachineInfo()
                0x000000000003ac40                CMachineInfo::~CMachineInfo()
                0x000000000003ac40                CMachineInfo::~CMachineInfo()
                0x000000000003ac64                CMachineInfo::GetMachineModel() const
                0x000000000003ac6c                CMachineInfo::GetMachineName() const
                0x000000000003ac84                CMachineInfo::GetModelMajor() const
                0x000000000003ac8c                CMachineInfo::GetModelRevision() const
                0x000000000003ac94                CMachineInfo::GetSoCType() const
                0x000000000003ac9c                CMachineInfo::GetRAMSize() const
                0x000000000003aca4                CMachineInfo::GetSoCName() const
                0x000000000003acbc                CMachineInfo::GetRevisionRaw() const
                0x000000000003acc4                CMachineInfo::GetClockRate(unsigned int) const
                0x000000000003ad8c                CMachineInfo::GetGPIOPin(TGPIOVirtualPin) const
                0x000000000003ae00                CMachineInfo::GetDevice(TDeviceId) const
                0x000000000003ae3c                CMachineInfo::Get()
 .text          0x000000000003ae78       0xe0 ../../lib/libcircle8.a(bcmrandom.o)
                0x000000000003ae78                CBcmRandomNumberGenerator::CBcmRandomNumberGenerator()
                0x000000000003ae78                CBcmRandomNumberGenerator::CBcmRandomNumberGenerator()
                0x000000000003aef4                CBcmRandomNumberGenerator::~CBcmRandomNumberGenerator()
                0x000000000003aef4                CBcmRandomNumberGenerator::~CBcmRandomNumberGenerator()
                0x000000000003aef8                CBcmRandomNumberGenerator::GetNumber()
 .text.startup  0x000000000003af58       0x14 ../../lib/libcircle8.a(bcmrandom.o)
 .text          0x000000000003af6c      0x4c8 ../../lib/libcircle8.a(ptrlist.o)
                0x000000000003af6c                CPtrList::CPtrList()
                0x000000000003af6c                CPtrList::CPtrList()
                0x000000000003af78                CPtrList::~CPtrList()
                0x000000000003af78                CPtrList::~CPtrList()
                0x000000000003afac                CPtrList::GetFirst()
                0x000000000003afb4                CPtrList::GetNext(TPtrListElement*)
                0x000000000003b00c                CPtrList::GetPtr(TPtrListElement*)
                0x000000000003b064                CPtrList::InsertBefore(TPtrListElement*, void*)
                0x000000000003b16c                CPtrList::InsertAfter(TPtrListElement*, void*)
                0x000000000003b268                CPtrList::Remove(TPtrListElement*)
                0x000000000003b3bc                CPtrList::Find(void*)
 .text          0x000000000003b434      0x48c ../../lib/libcircle8.a(alloc.o)
                0x000000000003b434                mem_init
                0x000000000003b470                mem_get_size
                0x000000000003b498                malloc
                0x000000000003b660                free
                0x000000000003b77c                palloc
                0x000000000003b860                pfree
 .text.startup  0x000000000003b8c0       0x18 ../../lib/libcircle8.a(alloc.o)
 .text          0x000000000003b8d8      0x170 ../../lib/libcircle8.a(bcmmailbox.o)
                0x000000000003b8d8                CBcmMailBox::CBcmMailBox(unsigned int)
                0x000000000003b8d8                CBcmMailBox::CBcmMailBox(unsigned int)
                0x000000000003b8e4                CBcmMailBox::~CBcmMailBox()
                0x000000000003b8e4                CBcmMailBox::~CBcmMailBox()
                0x000000000003b8e8                CBcmMailBox::Flush()
                0x000000000003b91c                CBcmMailBox::Read()
                0x000000000003b94c                CBcmMailBox::Write(unsigned int)
                0x000000000003b9a0                CBcmMailBox::WriteRead(unsigned int)
 .text          0x000000000003ba48      0x120 ../../lib/libcircle8.a(libhelper.o)
                0x000000000003ba48                __Divide
                0x000000000003bb18                __DivideInteger
 .text          0x000000000003bb68      0x3b8 ../../lib/libcircle8.a(bcmframebuffer.o)
                0x000000000003bbf0                CBcmFrameBuffer::CBcmFrameBuffer(unsigned int, unsigned int, unsigned int, unsigned int, unsigned int)
                0x000000000003bbf0                CBcmFrameBuffer::CBcmFrameBuffer(unsigned int, unsigned int, unsigned int, unsigned int, unsigned int)
                0x000000000003bd20                CBcmFrameBuffer::~CBcmFrameBuffer()
                0x000000000003bd20                CBcmFrameBuffer::~CBcmFrameBuffer()
                0x000000000003bd3c                CBcmFrameBuffer::SetPalette(unsigned char, unsigned short)
                0x000000000003bd78                CBcmFrameBuffer::SetPalette32(unsigned char, unsigned int)
                0x000000000003bd90                CBcmFrameBuffer::Initialize()
                0x000000000003be50                CBcmFrameBuffer::GetWidth() const
                0x000000000003be58                CBcmFrameBuffer::GetHeight() const
                0x000000000003be60                CBcmFrameBuffer::GetVirtWidth() const
                0x000000000003be68                CBcmFrameBuffer::GetVirtHeight() const
                0x000000000003be70                CBcmFrameBuffer::GetPitch() const
                0x000000000003be78                CBcmFrameBuffer::GetDepth() const
                0x000000000003be80                CBcmFrameBuffer::GetBuffer() const
                0x000000000003be88                CBcmFrameBuffer::GetSize() const
                0x000000000003be90                CBcmFrameBuffer::UpdatePalette()
                0x000000000003bea8                CBcmFrameBuffer::SetVirtualOffset(unsigned int, unsigned int)
 .text          0x000000000003bf20      0x1d8 ../../lib/libcircle8.a(gpioclock.o)
                0x000000000003bf20                CGPIOClock::CGPIOClock(TGPIOClock, TGPIOClockSource)
                0x000000000003bf20                CGPIOClock::CGPIOClock(TGPIOClock, TGPIOClockSource)
                0x000000000003bf7c                CGPIOClock::~CGPIOClock()
                0x000000000003bf7c                CGPIOClock::~CGPIOClock()
                0x000000000003bfb8                CGPIOClock::Start(unsigned int, unsigned int, unsigned int)
                0x000000000003c0bc                CGPIOClock::Stop()
                0x000000000003c0f8                _etext = .

.glue_7         0x000000000003c0f8        0x0
 .glue_7        0x000000000003c0f8        0x0 linker stubs

.glue_7t        0x000000000003c0f8        0x0
 .glue_7t       0x000000000003c0f8        0x0 linker stubs

.vfp11_veneer   0x000000000003c0f8        0x0
 .vfp11_veneer  0x000000000003c0f8        0x0 linker stubs

.v4_bx          0x000000000003c0f8        0x0
 .v4_bx         0x000000000003c0f8        0x0 linker stubs

.iplt           0x000000000003c0f8        0x0
 .iplt          0x000000000003c0f8        0x0 ../../lib/startup.o

.rodata         0x000000000003c0f8    0x13eb8
 *(.rodata*)
 .rodata        0x000000000003c0f8        0x7 kernel.o
 *fill*         0x000000000003c0ff        0x1 
 .rodata.str1.4
                0x000000000003c100      0x15d kernel.o
                                        0x1a5 (size before relaxing)
 *fill*         0x000000000003c25d        0x3 
 .rodata        0x000000000003c260     0x1700 Z80SPC.o
 .rodata.str1.4
                0x000000000003d960       0x59 Z80SPC.o
 *fill*         0x000000000003d9b9        0x3 
 .rodata        0x000000000003d9bc      0x240 AY8910.o
 .rodata        0x000000000003dbfc       0x14 pwmsound.o
                0x000000000003dbfc                vtable for CPWMSound
 .rodata.str1.4
                0x000000000003dc10       0xdc pwmsound.o
                                         0xec (size before relaxing)
 .rodata.str1.4
                0x000000000003dcec        0xe casswindow.o
 *fill*         0x000000000003dcfa        0x2 
 .rodata        0x000000000003dcfc     0xc32c ../../addon/ugui/libugui.a(ugui.o)
                0x000000000003dcfc                pal_button_pressed
                0x000000000003dd08                pal_button_released
                0x000000000003dd14                pal_checkbox_pressed
                0x000000000003dd20                pal_checkbox_released
                0x000000000003dd2c                pal_window
                0x000000000003dd38                FONT_12X20
                0x000000000003dd4c                FONT_12X16
                0x000000000003dd60                FONT_10X16
                0x000000000003dd74                FONT_8X14
                0x000000000003dd88                FONT_8X12
                0x000000000003dd9c                FONT_8X8
                0x000000000003ddb0                FONT_7X12
                0x000000000003ddc4                FONT_6X10
                0x000000000003ddd8                FONT_6X8
                0x000000000003ddec                FONT_5X12
                0x000000000003de00                FONT_5X8
                0x000000000003de14                FONT_4X6
                0x000000000003de28                font_12x20
                0x0000000000040628                font_12x16
                0x0000000000042628                font_10x16
                0x0000000000044628                font_8x14
                0x0000000000045428                font_8x12
                0x0000000000046028                font_8x8
                0x0000000000046828                font_7x12
                0x0000000000047428                font_6x10
                0x0000000000047e28                font_6x8
                0x0000000000048628                font_5x12
                0x0000000000049228                font_5x8
                0x0000000000049a28                font_4x6
 .rodata.str1.4
                0x000000000004a028        0x2 ../../addon/ugui/libugui.a(ugui.o)
 .rodata.str1.4
                0x000000000004a028       0x63 ../../addon/ugui/libugui.a(uguicpp.o)
 *fill*         0x000000000004a08b        0x1 
 .rodata        0x000000000004a08c       0x23 ../../lib/usb/libusb.a(dwhcidevice.o)
                0x000000000004a08c                vtable for CDWHCIDevice
 *fill*         0x000000000004a0af        0x1 
 .rodata.str1.4
                0x000000000004a0b0      0x55a ../../lib/usb/libusb.a(dwhcidevice.o)
                                        0x55e (size before relaxing)
 *fill*         0x000000000004a60a        0x2 
 .rodata.str1.4
                0x000000000004a60c       0x7d ../../lib/usb/libusb.a(dwhciregister.o)
 *fill*         0x000000000004a689        0x3 
 .rodata.str1.4
                0x000000000004a68c      0x14a ../../lib/usb/libusb.a(dwhcixferstagedata.o)
                                        0x14e (size before relaxing)
 *fill*         0x000000000004a7d6        0x2 
 .rodata        0x000000000004a7d8       0x1f ../../lib/usb/libusb.a(usbdevice.o)
                0x000000000004a7d8                vtable for CUSBDevice
 *fill*         0x000000000004a7f7        0x1 
 .rodata.str1.4
                0x000000000004a7f8      0x352 ../../lib/usb/libusb.a(usbdevice.o)
                                        0x356 (size before relaxing)
 *fill*         0x000000000004ab4a        0x2 
 .rodata.str1.4
                0x000000000004ab4c      0x137 ../../lib/usb/libusb.a(usbendpoint.o)
                                        0x14b (size before relaxing)
 *fill*         0x000000000004ac83        0x1 
 .rodata        0x000000000004ac84       0x18 ../../lib/usb/libusb.a(usbhostcontroller.o)
                0x000000000004ac84                vtable for CUSBHostController
 .rodata.str1.4
                0x000000000004ac9c       0x9e ../../lib/usb/libusb.a(usbrequest.o)
                                         0xb2 (size before relaxing)
 *fill*         0x000000000004ad3a        0x2 
 .rodata.str1.4
                0x000000000004ad3c       0xea ../../lib/usb/libusb.a(usbdevicefactory.o)
                                         0xf6 (size before relaxing)
 *fill*         0x000000000004ae26        0x2 
 .rodata        0x000000000004ae28       0x2b ../../lib/usb/libusb.a(usbstandardhub.o)
                0x000000000004ae28                vtable for CUSBStandardHub
 *fill*         0x000000000004ae53        0x1 
 .rodata.str1.4
                0x000000000004ae54      0x22c ../../lib/usb/libusb.a(usbstandardhub.o)
 .rodata        0x000000000004b080       0x29 ../../lib/usb/libusb.a(usbmassdevice.o)
                0x000000000004b080                vtable for CUSBBulkOnlyMassStorageDevice
 *fill*         0x000000000004b0a9        0x3 
 .rodata.str1.4
                0x000000000004b0ac      0x24e ../../lib/usb/libusb.a(usbmassdevice.o)
                                        0x282 (size before relaxing)
 *fill*         0x000000000004b2fa        0x2 
 .rodata        0x000000000004b2fc       0x24 ../../lib/usb/libusb.a(dwhciframeschednper.o)
                0x000000000004b2fc                vtable for CDWHCIFrameSchedulerNonPeriodic
 .rodata.str1.4
                0x000000000004b320       0x58 ../../lib/usb/libusb.a(dwhciframeschednper.o)
                                         0x6a (size before relaxing)
 .rodata        0x000000000004b378       0x24 ../../lib/usb/libusb.a(dwhciframeschedper.o)
                0x000000000004b378                vtable for CDWHCIFrameSchedulerPeriodic
 .rodata.str1.4
                0x000000000004b39c       0x17 ../../lib/usb/libusb.a(dwhciframeschedper.o)
                                         0x6a (size before relaxing)
 *fill*         0x000000000004b3b3        0x1 
 .rodata        0x000000000004b3b4       0x2f ../../lib/usb/libusb.a(usbkeyboard.o)
                0x000000000004b3b4                vtable for CUSBKeyboardDevice
 *fill*         0x000000000004b3e3        0x1 
 .rodata.str1.4
                0x000000000004b3e4       0x67 ../../lib/usb/libusb.a(usbkeyboard.o)
 *fill*         0x000000000004b44b        0x1 
 .rodata        0x000000000004b44c        0x7 ../../lib/usb/libusb.a(dwhcirootport.o)
 *fill*         0x000000000004b453        0x1 
 .rodata.str1.4
                0x000000000004b454       0x83 ../../lib/usb/libusb.a(dwhcirootport.o)
                                         0x93 (size before relaxing)
 *fill*         0x000000000004b4d7        0x1 
 .rodata        0x000000000004b4d8       0x2f ../../lib/usb/libusb.a(usbhiddevice.o)
                0x000000000004b4d8                vtable for CUSBHIDDevice
 *fill*         0x000000000004b507        0x1 
 .rodata.str1.4
                0x000000000004b508       0xd7 ../../lib/usb/libusb.a(usbhiddevice.o)
                                        0x107 (size before relaxing)
 *fill*         0x000000000004b5df        0x1 
 .rodata        0x000000000004b5e0       0x2f ../../lib/usb/libusb.a(usbmouse.o)
                0x000000000004b5e0                vtable for CUSBMouseDevice
 *fill*         0x000000000004b60f        0x1 
 .rodata.str1.4
                0x000000000004b610       0x49 ../../lib/usb/libusb.a(usbmouse.o)
                                         0x65 (size before relaxing)
 *fill*         0x000000000004b659        0x3 
 .rodata        0x000000000004b65c       0x37 ../../lib/usb/libusb.a(usbgamepad.o)
                0x000000000004b65c                vtable for CUSBGamePadDevice
 *fill*         0x000000000004b693        0x1 
 .rodata.str1.4
                0x000000000004b694       0xab ../../lib/usb/libusb.a(usbgamepad.o)
                                         0xf7 (size before relaxing)
 *fill*         0x000000000004b73f        0x1 
 .rodata        0x000000000004b740       0x2b ../../lib/usb/libusb.a(usbfunction.o)
                0x000000000004b740                vtable for CUSBFunction
 *fill*         0x000000000004b76b        0x1 
 .rodata.str1.4
                0x000000000004b76c       0x85 ../../lib/usb/libusb.a(usbfunction.o)
                                         0xcd (size before relaxing)
 *fill*         0x000000000004b7f1        0x3 
 .rodata        0x000000000004b7f4       0x24 ../../lib/usb/libusb.a(dwhciframeschednsplit.o)
                0x000000000004b7f4                vtable for CDWHCIFrameSchedulerNoSplit
 .rodata.str1.4
                0x000000000004b818       0x1a ../../lib/usb/libusb.a(dwhciframeschednsplit.o)
                                         0x1e (size before relaxing)
 *fill*         0x000000000004b832        0x2 
 .rodata        0x000000000004b834       0x29 ../../lib/usb/libusb.a(usbprinter.o)
                0x000000000004b834                vtable for CUSBPrinterDevice
 *fill*         0x000000000004b85d        0x3 
 .rodata.str1.4
                0x000000000004b860       0x43 ../../lib/usb/libusb.a(usbprinter.o)
                                         0x77 (size before relaxing)
 *fill*         0x000000000004b8a3        0x1 
 .rodata        0x000000000004b8a4       0x2a ../../lib/usb/libusb.a(usbbluetooth.o)
                0x000000000004b8a4                vtable for CUSBBluetoothDevice
 *fill*         0x000000000004b8ce        0x2 
 .rodata.str1.4
                0x000000000004b8d0       0x96 ../../lib/usb/libusb.a(usbbluetooth.o)
                                         0xfa (size before relaxing)
 *fill*         0x000000000004b966        0x2 
 .rodata        0x000000000004b968       0x6a ../../lib/usb/libusb.a(usbmidi.o)
                0x000000000004b968                vtable for CUSBMIDIDevice
 *fill*         0x000000000004b9d2        0x2 
 .rodata.str1.4
                0x000000000004b9d4       0xd0 ../../lib/usb/libusb.a(usbmidi.o)
                                        0x130 (size before relaxing)
 .rodata        0x000000000004baa4       0x38 ../../lib/usb/libusb.a(usbcdcethernet.o)
                0x000000000004baa4                vtable for CUSBCDCEthernetDevice
 .rodata.str1.4
                0x000000000004badc       0xb2 ../../lib/usb/libusb.a(usbcdcethernet.o)
                                         0xd9 (size before relaxing)
 *fill*         0x000000000004bb8e        0x2 
 .rodata.str1.4
                0x000000000004bb90       0x9b ../../lib/usb/libusb.a(usbconfigparser.o)
                                         0xb7 (size before relaxing)
 *fill*         0x000000000004bc2b        0x1 
 .rodata.str1.4
                0x000000000004bc2c       0x9b ../../lib/usb/libusb.a(usbstring.o)
                                         0xbb (size before relaxing)
 *fill*         0x000000000004bcc7        0x1 
 .rodata        0x000000000004bcc8       0x39 ../../lib/usb/libusb.a(smsc951x.o)
                0x000000000004bcc8                vtable for CSMSC951xDevice
 *fill*         0x000000000004bd01        0x3 
 .rodata.str1.4
                0x000000000004bd04      0x170 ../../lib/usb/libusb.a(smsc951x.o)
                                        0x214 (size before relaxing)
 .rodata.str1.4
                0x000000000004be74       0x4e ../../lib/usb/libusb.a(macaddress.o)
                                         0x6a (size before relaxing)
 *fill*         0x000000000004bec2        0x2 
 .rodata        0x000000000004bec4       0x30 ../../lib/usb/libusb.a(netdevice.o)
                0x000000000004bec4                vtable for CNetDevice
 .rodata.str1.4
                0x000000000004bef4        0x6 ../../lib/usb/libusb.a(netdevice.o)
 *fill*         0x000000000004befa        0x2 
 .rodata.str1.4
                0x000000000004befc       0x77 ../../lib/input/libinput.a(keyboardbehaviour.o)
                                         0x93 (size before relaxing)
 *fill*         0x000000000004bf73        0x1 
 .rodata        0x000000000004bf74     0x1800 ../../lib/input/libinput.a(keymap.o)
                0x000000000004bf74                CKeyMap::s_DefaultMap
 .rodata.str1.4
                0x000000000004d774       0xec ../../lib/input/libinput.a(keymap.o)
                                        0x126 (size before relaxing)
 .rodata        0x000000000004d860      0x400 ../../lib/input/libinput.a(mousebehaviour.o)
 .rodata.str1.4
                0x000000000004dc60       0xb6 ../../lib/input/libinput.a(mousebehaviour.o)
                                         0xce (size before relaxing)
 *fill*         0x000000000004dd16        0x2 
 .rodata        0x000000000004dd18       0x23 ../../lib/input/libinput.a(touchscreen.o)
                0x000000000004dd18                vtable for CTouchScreenDevice
 *fill*         0x000000000004dd3b        0x1 
 .rodata.str1.4
                0x000000000004dd3c       0xc3 ../../lib/input/libinput.a(touchscreen.o)
                                         0xf9 (size before relaxing)
 *fill*         0x000000000004ddff        0x1 
 .rodata        0x000000000004de00        0x6 ../../lib/fs/libfs.a(partitionmanager.o)
 *fill*         0x000000000004de06        0x2 
 .rodata.str1.4
                0x000000000004de08       0x7d ../../lib/fs/libfs.a(partitionmanager.o)
 *fill*         0x000000000004de85        0x3 
 .rodata        0x000000000004de88       0x1c ../../lib/fs/libfs.a(partition.o)
                0x000000000004de88                vtable for CPartition
 .rodata.str1.4
                0x000000000004dea4        0xe ../../lib/fs/libfs.a(partition.o)
                                         0x1f (size before relaxing)
 *fill*         0x000000000004deb2        0x2 
 .rodata.str1.4
                0x000000000004deb4       0x98 ../../lib/libcircle8.a(bcmpropertytags.o)
 .rodata        0x000000000004df4c       0x28 ../../lib/libcircle8.a(gpiopin.o)
                0x000000000004df64                vtable for CGPIOPin
 .rodata.str1.4
                0x000000000004df74      0x28d ../../lib/libcircle8.a(gpiopin.o)
                                        0x29d (size before relaxing)
 *fill*         0x000000000004e201        0x3 
 .rodata.str1.4
                0x000000000004e204       0x94 ../../lib/libcircle8.a(memory.o)
 .rodata.str1.4
                0x000000000004e298        0xd ../../lib/libcircle8.a(purecall.o)
                                         0x12 (size before relaxing)
 *fill*         0x000000000004e2a5        0x3 
 .rodata.str1.4
                0x000000000004e2a8       0xb5 ../../lib/libcircle8.a(synchronize.o)
 *fill*         0x000000000004e35d        0x3 
 .rodata        0x000000000004e360       0x36 ../../lib/libcircle8.a(timer.o)
                0x000000000004e360                CTimer::s_nDaysOfMonth
 *fill*         0x000000000004e396        0x2 
 .rodata.str1.4
                0x000000000004e398      0x114 ../../lib/libcircle8.a(timer.o)
                                        0x168 (size before relaxing)
 .rodata        0x000000000004e4ac       0x1c ../../lib/libcircle8.a(device.o)
                0x000000000004e4ac                vtable for CDevice
 .rodata.str1.4
                0x000000000004e4c8       0x5e ../../lib/libcircle8.a(koptions.o)
                                         0x62 (size before relaxing)
 *fill*         0x000000000004e526        0x2 
 .rodata.str1.4
                0x000000000004e528       0x3e ../../lib/libcircle8.a(pagetable.o)
 *fill*         0x000000000004e566        0x2 
 .rodata        0x000000000004e568       0x21 ../../lib/libcircle8.a(screen.o)
                0x000000000004e568                vtable for CScreenDevice
 .rodata.str1.4
                0x000000000004e589        0x5 ../../lib/libcircle8.a(screen.o)
 *fill*         0x000000000004e589        0x3 
 .rodata.str1.4
                0x000000000004e58c       0x1d ../../lib/libcircle8.a(assert.o)
 *fill*         0x000000000004e5a9        0x3 
 .rodata        0x000000000004e5ac      0xdf0 ../../lib/libcircle8.a(chargenerator.o)
 .rodata.str1.4
                0x000000000004f39c       0x29 ../../lib/libcircle8.a(chargenerator.o)
 *fill*         0x000000000004f3c5        0x3 
 .rodata        0x000000000004f3c8        0x6 ../../lib/libcircle8.a(debug.o)
 *fill*         0x000000000004f3ce        0x2 
 .rodata.str1.4
                0x000000000004f3d0       0x8e ../../lib/libcircle8.a(debug.o)
 *fill*         0x000000000004f45e        0x2 
 .rodata.str1.4
                0x000000000004f460       0x64 ../../lib/libcircle8.a(devicenameservice.o)
                                         0x70 (size before relaxing)
 .rodata.str1.4
                0x000000000004f4c4       0x37 ../../lib/libcircle8.a(logger.o)
                                         0x3f (size before relaxing)
 *fill*         0x000000000004f4fb        0x1 
 .rodata        0x000000000004f4fc       0x1c ../../lib/libcircle8.a(serial.o)
                0x000000000004f4fc                vtable for CSerialDevice
 .rodata.str1.4
                0x000000000004f518       0x92 ../../lib/libcircle8.a(serial.o)
                                         0xb8 (size before relaxing)
 *fill*         0x000000000004f5aa        0x2 
 .rodata        0x000000000004f5ac       0x10 ../../lib/libcircle8.a(string.o)
                0x000000000004f5ac                vtable for CString
 .rodata.str1.4
                0x000000000004f5bc        0x9 ../../lib/libcircle8.a(string.o)
                                          0xd (size before relaxing)
 *fill*         0x000000000004f5c5        0x3 
 .rodata        0x000000000004f5c8        0x7 ../../lib/libcircle8.a(exceptionhandler.o)
 *fill*         0x000000000004f5cf        0x1 
 .rodata.str1.4
                0x000000000004f5d0       0xbb ../../lib/libcircle8.a(exceptionhandler.o)
                                         0xdb (size before relaxing)
 *fill*         0x000000000004f68b        0x1 
 .rodata.str1.4
                0x000000000004f68c       0x9e ../../lib/libcircle8.a(interrupt.o)
                                         0xbd (size before relaxing)
 *fill*         0x000000000004f72a        0x2 
 .rodata.str1.4
                0x000000000004f72c       0x7b ../../lib/libcircle8.a(gpiomanager.o)
                                         0x9c (size before relaxing)
 *fill*         0x000000000004f7a7        0x1 
 .rodata        0x000000000004f7a8       0x14 ../../lib/libcircle8.a(pwmsoundbasedevice.o)
                0x000000000004f7a8                vtable for CPWMSoundBaseDevice
 .rodata.str1.4
                0x000000000004f7bc      0x205 ../../lib/libcircle8.a(pwmsoundbasedevice.o)
                                        0x22d (size before relaxing)
 *fill*         0x000000000004f9c1        0x3 
 .rodata        0x000000000004f9c4       0x10 ../../lib/libcircle8.a(virtualgpiopin.o)
                0x000000000004f9c4                vtable for CVirtualGPIOPin
 .rodata        0x000000000004f9d4      0x1cc ../../lib/libcircle8.a(machineinfo.o)
 .rodata.str1.4
                0x000000000004fba0      0x119 ../../lib/libcircle8.a(machineinfo.o)
                                        0x135 (size before relaxing)
 *fill*         0x000000000004fcb9        0x3 
 .rodata.str1.4
                0x000000000004fcbc      0x176 ../../lib/libcircle8.a(ptrlist.o)
 *fill*         0x000000000004fe32        0x2 
 .rodata.str1.4
                0x000000000004fe34       0xa8 ../../lib/libcircle8.a(alloc.o)
 .rodata.str1.4
                0x000000000004fedc       0x23 ../../lib/libcircle8.a(bcmmailbox.o)
 *fill*         0x000000000004feff        0x1 
 .rodata.str1.4
                0x000000000004ff00        0xe ../../lib/libcircle8.a(libhelper.o)
                                         0x12 (size before relaxing)
 *fill*         0x000000000004ff0e        0x2 
 .rodata        0x000000000004ff10       0x10 ../../lib/libcircle8.a(gpioclock.o)
 .rodata.str1.4
                0x000000000004ff20       0x90 ../../lib/libcircle8.a(gpioclock.o)
                                         0x8e (size before relaxing)

.rel.dyn        0x000000000004ffb0        0x0
 .rel.iplt      0x000000000004ffb0        0x0 ../../lib/startup.o

.init_array     0x000000000004ffb0       0x14
                0x000000000004ffb0                __init_start = .
 *(.init_array*)
 .init_array    0x000000000004ffb0        0x4 main.o
 .init_array    0x000000000004ffb4        0x4 ../../lib/libcircle8.a(gpiopin.o)
 .init_array    0x000000000004ffb8        0x4 ../../lib/libcircle8.a(virtualgpiopin.o)
 .init_array    0x000000000004ffbc        0x4 ../../lib/libcircle8.a(bcmrandom.o)
 .init_array    0x000000000004ffc0        0x4 ../../lib/libcircle8.a(alloc.o)
                0x000000000004ffc4                __init_end = .

.data           0x000000000004ffc4     0x913c
 *(.data*)
 .data          0x000000000004ffc4        0x0 ../../lib/startup.o
 .data          0x000000000004ffc4        0x0 main.o
 .data          0x000000000004ffc4      0x464 kernel.o
                0x000000000004ffc4                spcKeyMap
                0x0000000000050424                tapsize
 .data          0x0000000000050428        0x0 Z80SPC.o
 .data          0x0000000000050428     0x8000 spcall.o
                0x0000000000050428                ROM
 .data          0x0000000000058428      0xa98 MC6847.o
                0x0000000000058428                ATTR_EXT
                0x000000000005842c                ATTR_SEM
                0x0000000000058430                ATTR_CSS
                0x0000000000058434                ATTR_INV
                0x0000000000058438                CGROM
                0x0000000000058eb8                width
                0x0000000000058ebc                height
 .data          0x0000000000058ec0       0x10 AY8910.o
 .data          0x0000000000058ed0        0x0 pwmsound.o
 .data          0x0000000000058ed0        0x0 casswindow.o
 .data          0x0000000000058ed0        0x0 ../../addon/ugui/libugui.a(ugui.o)
 .data          0x0000000000058ed0        0x0 ../../addon/ugui/libugui.a(uguicpp.o)
 .data          0x0000000000058ed0        0x0 ../../lib/usb/libusb.a(dwhcidevice.o)
 .data          0x0000000000058ed0        0x0 ../../lib/usb/libusb.a(dwhciregister.o)
 .data          0x0000000000058ed0        0x0 ../../lib/usb/libusb.a(dwhcixferstagedata.o)
 .data          0x0000000000058ed0        0x1 ../../lib/usb/libusb.a(usbdevice.o)
                0x0000000000058ed0                CUSBDevice::s_ucNextAddress
 .data          0x0000000000058ed1        0x0 ../../lib/usb/libusb.a(usbendpoint.o)
 .data          0x0000000000058ed1        0x0 ../../lib/usb/libusb.a(usbhostcontroller.o)
 .data          0x0000000000058ed1        0x0 ../../lib/usb/libusb.a(usbrequest.o)
 .data          0x0000000000058ed1        0x0 ../../lib/usb/libusb.a(usbdevicefactory.o)
 *fill*         0x0000000000058ed1        0x3 
 .data          0x0000000000058ed4        0x4 ../../lib/usb/libusb.a(usbstandardhub.o)
                0x0000000000058ed4                CUSBStandardHub::s_nDeviceNumber
 .data          0x0000000000058ed8        0x4 ../../lib/usb/libusb.a(usbmassdevice.o)
                0x0000000000058ed8                CUSBBulkOnlyMassStorageDevice::s_nDeviceNumber
 .data          0x0000000000058edc        0x0 ../../lib/usb/libusb.a(dwhciframeschednper.o)
 .data          0x0000000000058edc        0x0 ../../lib/usb/libusb.a(dwhciframeschedper.o)
 .data          0x0000000000058edc        0x4 ../../lib/usb/libusb.a(usbkeyboard.o)
                0x0000000000058edc                CUSBKeyboardDevice::s_nDeviceNumber
 .data          0x0000000000058ee0        0x0 ../../lib/usb/libusb.a(dwhcirootport.o)
 .data          0x0000000000058ee0        0x0 ../../lib/usb/libusb.a(usbhiddevice.o)
 .data          0x0000000000058ee0        0x4 ../../lib/usb/libusb.a(usbmouse.o)
                0x0000000000058ee0                CUSBMouseDevice::s_nDeviceNumber
 .data          0x0000000000058ee4       0x38 ../../lib/usb/libusb.a(usbgamepad.o)
                0x0000000000058f18                CUSBGamePadDevice::s_nDeviceNumber
 .data          0x0000000000058f1c        0x0 ../../lib/usb/libusb.a(usbfunction.o)
 .data          0x0000000000058f1c        0x0 ../../lib/usb/libusb.a(dwhciframeschednsplit.o)
 .data          0x0000000000058f1c        0x4 ../../lib/usb/libusb.a(usbprinter.o)
                0x0000000000058f1c                CUSBPrinterDevice::s_nDeviceNumber
 .data          0x0000000000058f20        0x4 ../../lib/usb/libusb.a(usbbluetooth.o)
                0x0000000000058f20                CUSBBluetoothDevice::s_nDeviceNumber
 .data          0x0000000000058f24        0x4 ../../lib/usb/libusb.a(usbmidi.o)
                0x0000000000058f24                CUSBMIDIDevice::s_nDeviceNumber
 .data          0x0000000000058f28        0x0 ../../lib/usb/libusb.a(usbcdcethernet.o)
 .data          0x0000000000058f28        0x0 ../../lib/usb/libusb.a(usbconfigparser.o)
 .data          0x0000000000058f28        0x0 ../../lib/usb/libusb.a(usbstring.o)
 .data          0x0000000000058f28        0x0 ../../lib/usb/libusb.a(smsc951x.o)
 .data          0x0000000000058f28        0x0 ../../lib/usb/libusb.a(macaddress.o)
 .data          0x0000000000058f28        0x0 ../../lib/usb/libusb.a(netdevice.o)
 .data          0x0000000000058f28        0x0 ../../lib/input/libinput.a(keyboardbehaviour.o)
 .data          0x0000000000058f28       0xe8 ../../lib/input/libinput.a(keymap.o)
                0x0000000000058f28                CKeyMap::s_KeyStrings
                0x0000000000058ff4                CKeyMap::s_MapDirectory
 .data          0x0000000000059010        0x0 ../../lib/input/libinput.a(mousebehaviour.o)
 .data          0x0000000000059010        0x0 ../../lib/input/libinput.a(touchscreen.o)
 .data          0x0000000000059010        0x0 ../../lib/fs/libfs.a(partitionmanager.o)
 .data          0x0000000000059010        0x0 ../../lib/fs/libfs.a(partition.o)
 .data          0x0000000000059010        0x0 ../../lib/libcircle8.a(actled.o)
 .data          0x0000000000059010        0x0 ../../lib/libcircle8.a(bcmpropertytags.o)
 .data          0x0000000000059010        0x0 ../../lib/libcircle8.a(gpiopin.o)
 .data          0x0000000000059010        0x0 ../../lib/libcircle8.a(libstub.o)
 .data          0x0000000000059010        0x0 ../../lib/libcircle8.a(memory.o)
 .data          0x0000000000059010        0x0 ../../lib/libcircle8.a(new.o)
 .data          0x0000000000059010        0x0 ../../lib/libcircle8.a(purecall.o)
 .data          0x0000000000059010        0x0 ../../lib/libcircle8.a(synchronize.o)
 .data          0x0000000000059010        0x0 ../../lib/libcircle8.a(sysinit.o)
 .data          0x0000000000059010       0x30 ../../lib/libcircle8.a(timer.o)
                0x0000000000059010                CTimer::s_pMonthName
 .data          0x0000000000059040        0x0 ../../lib/libcircle8.a(util.o)
 .data          0x0000000000059040        0x0 ../../lib/libcircle8.a(util_fast.o)
 .data          0x0000000000059040        0x0 ../../lib/libcircle8.a(device.o)
 .data          0x0000000000059040        0x0 ../../lib/libcircle8.a(koptions.o)
 .data          0x0000000000059040        0x0 ../../lib/libcircle8.a(pagetable.o)
 .data          0x0000000000059040        0x0 ../../lib/libcircle8.a(screen.o)
 .data          0x0000000000059040        0x0 ../../lib/libcircle8.a(assert.o)
 .data          0x0000000000059040        0x0 ../../lib/libcircle8.a(chargenerator.o)
 .data          0x0000000000059040        0x0 ../../lib/libcircle8.a(debug.o)
 .data          0x0000000000059040        0x0 ../../lib/libcircle8.a(devicenameservice.o)
 .data          0x0000000000059040        0x0 ../../lib/libcircle8.a(logger.o)
 .data          0x0000000000059040        0x0 ../../lib/libcircle8.a(serial.o)
 .data          0x0000000000059040        0x0 ../../lib/libcircle8.a(string.o)
 .data          0x0000000000059040        0x0 ../../lib/libcircle8.a(delayloop.o)
 .data          0x0000000000059040       0x10 ../../lib/libcircle8.a(exceptionhandler.o)
                0x0000000000059040                CExceptionHandler::s_pExceptionName
 .data          0x0000000000059050        0x8 ../../lib/libcircle8.a(exceptionstub.o)
                0x0000000000059050                FIQData
 .data          0x0000000000059058        0x0 ../../lib/libcircle8.a(interrupt.o)
 .data          0x0000000000059058        0x0 ../../lib/libcircle8.a(gpiomanager.o)
 .data          0x0000000000059058        0x0 ../../lib/libcircle8.a(pwmsoundbasedevice.o)
 .data          0x0000000000059058        0x0 ../../lib/libcircle8.a(virtualgpiopin.o)
 .data          0x0000000000059058        0x0 ../../lib/libcircle8.a(machineinfo.o)
 .data          0x0000000000059058        0x0 ../../lib/libcircle8.a(bcmrandom.o)
 .data          0x0000000000059058        0x0 ../../lib/libcircle8.a(ptrlist.o)
 .data          0x0000000000059058       0x38 ../../lib/libcircle8.a(alloc.o)
 .data          0x0000000000059090        0x0 ../../lib/libcircle8.a(bcmmailbox.o)
 .data          0x0000000000059090        0x0 ../../lib/libcircle8.a(libhelper.o)
 .data          0x0000000000059090       0x70 ../../lib/libcircle8.a(bcmframebuffer.o)
 .data          0x0000000000059100        0x0 ../../lib/libcircle8.a(gpioclock.o)

.igot.plt       0x0000000000059100        0x0
 .igot.plt      0x0000000000059100        0x0 ../../lib/startup.o

.bss            0x0000000000059100   0x134eb8
                0x0000000000059100                __bss_start = .
 *(.bss*)
 .bss           0x0000000000059100        0x0 ../../lib/startup.o
 .bss           0x0000000000059100     0x1e5c main.o
                0x0000000000059100                Kernel
 *fill*         0x000000000005af5c        0x4 
 .bss           0x000000000005af60   0x11c110 kernel.o
                0x000000000005af64                keyMatrix
                0x000000000005af70                bpp
                0x000000000005af78                count
                0x000000000005af7c                spcKeyHash
                0x000000000005cf80                spcsys
 .bss           0x0000000000177070        0x4 Z80SPC.o
 .bss           0x0000000000177074        0x0 spcall.o
 .bss           0x0000000000177074        0x8 MC6847.o
                0x0000000000177074                XWidth
                0x0000000000177078                currentPage
 .bss           0x000000000017707c     0x3e94 AY8910.o
                0x000000000017707c                sound_mutex
                0x0000000000177080                LastBufTime
                0x0000000000177088                SndQ
 .bss           0x000000000017af10        0x0 pwmsound.o
 .bss           0x000000000017af10        0x0 casswindow.o
 .bss           0x000000000017af10        0xc ../../addon/ugui/libugui.a(ugui.o)
 .bss           0x000000000017af1c        0x4 ../../addon/ugui/libugui.a(uguicpp.o)
                0x000000000017af1c                CUGUI::s_pThis
 .bss           0x000000000017af20        0x0 ../../lib/usb/libusb.a(dwhcidevice.o)
 .bss           0x000000000017af20        0x0 ../../lib/usb/libusb.a(dwhciregister.o)
 .bss           0x000000000017af20        0x0 ../../lib/usb/libusb.a(dwhcixferstagedata.o)
 .bss           0x000000000017af20        0x0 ../../lib/usb/libusb.a(usbdevice.o)
 .bss           0x000000000017af20        0x0 ../../lib/usb/libusb.a(usbendpoint.o)
 .bss           0x000000000017af20        0x0 ../../lib/usb/libusb.a(usbhostcontroller.o)
 .bss           0x000000000017af20        0x0 ../../lib/usb/libusb.a(usbrequest.o)
 .bss           0x000000000017af20        0x0 ../../lib/usb/libusb.a(usbdevicefactory.o)
 .bss           0x000000000017af20        0x0 ../../lib/usb/libusb.a(usbstandardhub.o)
 .bss           0x000000000017af20        0x0 ../../lib/usb/libusb.a(usbmassdevice.o)
 .bss           0x000000000017af20        0x0 ../../lib/usb/libusb.a(dwhciframeschednper.o)
 .bss           0x000000000017af20        0x0 ../../lib/usb/libusb.a(dwhciframeschedper.o)
 .bss           0x000000000017af20        0x0 ../../lib/usb/libusb.a(usbkeyboard.o)
 .bss           0x000000000017af20        0x0 ../../lib/usb/libusb.a(dwhcirootport.o)
 .bss           0x000000000017af20        0x0 ../../lib/usb/libusb.a(usbhiddevice.o)
 .bss           0x000000000017af20        0x0 ../../lib/usb/libusb.a(usbmouse.o)
 .bss           0x000000000017af20        0x0 ../../lib/usb/libusb.a(usbgamepad.o)
 .bss           0x000000000017af20        0x0 ../../lib/usb/libusb.a(usbfunction.o)
 .bss           0x000000000017af20        0x0 ../../lib/usb/libusb.a(dwhciframeschednsplit.o)
 .bss           0x000000000017af20        0x0 ../../lib/usb/libusb.a(usbprinter.o)
 .bss           0x000000000017af20        0x0 ../../lib/usb/libusb.a(usbbluetooth.o)
 .bss           0x000000000017af20        0x0 ../../lib/usb/libusb.a(usbmidi.o)
 .bss           0x000000000017af20        0x0 ../../lib/usb/libusb.a(usbcdcethernet.o)
 .bss           0x000000000017af20        0x0 ../../lib/usb/libusb.a(usbconfigparser.o)
 .bss           0x000000000017af20        0x0 ../../lib/usb/libusb.a(usbstring.o)
 .bss           0x000000000017af20        0x0 ../../lib/usb/libusb.a(smsc951x.o)
 .bss           0x000000000017af20        0x0 ../../lib/usb/libusb.a(macaddress.o)
 .bss           0x000000000017af20        0x4 ../../lib/usb/libusb.a(netdevice.o)
                0x000000000017af20                CNetDevice::s_nDeviceNumber
 .bss           0x000000000017af24        0x0 ../../lib/input/libinput.a(keyboardbehaviour.o)
 .bss           0x000000000017af24        0x0 ../../lib/input/libinput.a(keymap.o)
 .bss           0x000000000017af24        0x0 ../../lib/input/libinput.a(mousebehaviour.o)
 .bss           0x000000000017af24        0x0 ../../lib/input/libinput.a(touchscreen.o)
 .bss           0x000000000017af24        0x0 ../../lib/fs/libfs.a(partitionmanager.o)
 .bss           0x000000000017af24        0x0 ../../lib/fs/libfs.a(partition.o)
 .bss           0x000000000017af24        0x4 ../../lib/libcircle8.a(actled.o)
                0x000000000017af24                CActLED::s_pThis
 .bss           0x000000000017af28        0x0 ../../lib/libcircle8.a(bcmpropertytags.o)
 .bss           0x000000000017af28        0x4 ../../lib/libcircle8.a(gpiopin.o)
                0x000000000017af28                CGPIOPin::s_SpinLock
 .bss           0x000000000017af2c        0x0 ../../lib/libcircle8.a(libstub.o)
 .bss           0x000000000017af2c        0x0 ../../lib/libcircle8.a(memory.o)
 .bss           0x000000000017af2c        0x0 ../../lib/libcircle8.a(new.o)
 .bss           0x000000000017af2c        0x0 ../../lib/libcircle8.a(purecall.o)
 .bss           0x000000000017af2c       0x54 ../../lib/libcircle8.a(synchronize.o)
 .bss           0x000000000017af80        0x4 ../../lib/libcircle8.a(sysinit.o)
                0x000000000017af80                __dso_handle
 .bss           0x000000000017af84        0x4 ../../lib/libcircle8.a(timer.o)
                0x000000000017af84                CTimer::s_pThis
 .bss           0x000000000017af88        0x0 ../../lib/libcircle8.a(util.o)
 .bss           0x000000000017af88        0x0 ../../lib/libcircle8.a(util_fast.o)
 .bss           0x000000000017af88        0x0 ../../lib/libcircle8.a(device.o)
 .bss           0x000000000017af88        0x4 ../../lib/libcircle8.a(koptions.o)
                0x000000000017af88                CKernelOptions::s_pThis
 .bss           0x000000000017af8c        0x0 ../../lib/libcircle8.a(pagetable.o)
 .bss           0x000000000017af8c        0x0 ../../lib/libcircle8.a(screen.o)
 .bss           0x000000000017af8c        0x0 ../../lib/libcircle8.a(assert.o)
 .bss           0x000000000017af8c        0x0 ../../lib/libcircle8.a(chargenerator.o)
 .bss           0x000000000017af8c        0x0 ../../lib/libcircle8.a(debug.o)
 .bss           0x000000000017af8c        0x4 ../../lib/libcircle8.a(devicenameservice.o)
                0x000000000017af8c                CDeviceNameService::s_This
 .bss           0x000000000017af90        0x4 ../../lib/libcircle8.a(logger.o)
                0x000000000017af90                CLogger::s_pThis
 .bss           0x000000000017af94        0x0 ../../lib/libcircle8.a(serial.o)
 .bss           0x000000000017af94        0x0 ../../lib/libcircle8.a(string.o)
 .bss           0x000000000017af94        0x0 ../../lib/libcircle8.a(delayloop.o)
 .bss           0x000000000017af94        0x4 ../../lib/libcircle8.a(exceptionhandler.o)
                0x000000000017af94                CExceptionHandler::s_pThis
 .bss           0x000000000017af98        0x0 ../../lib/libcircle8.a(exceptionstub.o)
 .bss           0x000000000017af98        0x4 ../../lib/libcircle8.a(interrupt.o)
                0x000000000017af98                CInterruptSystem::s_pThis
 .bss           0x000000000017af9c        0x0 ../../lib/libcircle8.a(gpiomanager.o)
 .bss           0x000000000017af9c        0x0 ../../lib/libcircle8.a(pwmsoundbasedevice.o)
 .bss           0x000000000017af9c        0x8 ../../lib/libcircle8.a(virtualgpiopin.o)
                0x000000000017af9c                CVirtualGPIOPin::s_SpinLock
                0x000000000017afa0                CVirtualGPIOPin::s_nGPIOBaseAddress
 .bss           0x000000000017afa4        0x4 ../../lib/libcircle8.a(machineinfo.o)
                0x000000000017afa4                CMachineInfo::s_pThis
 .bss           0x000000000017afa8        0x8 ../../lib/libcircle8.a(bcmrandom.o)
                0x000000000017afa8                CBcmRandomNumberGenerator::s_SpinLock
                0x000000000017afac                CBcmRandomNumberGenerator::s_bInitialized
 .bss           0x000000000017afb0        0x0 ../../lib/libcircle8.a(ptrlist.o)
 .bss           0x000000000017afb0       0x1c ../../lib/libcircle8.a(alloc.o)
 .bss           0x000000000017afcc        0x0 ../../lib/libcircle8.a(bcmmailbox.o)
 .bss           0x000000000017afcc        0x0 ../../lib/libcircle8.a(libhelper.o)
 .bss           0x000000000017afcc        0x0 ../../lib/libcircle8.a(bcmframebuffer.o)
 .bss           0x000000000017afcc        0x0 ../../lib/libcircle8.a(gpioclock.o)
                0x000000000017afcc                _end = .
 COMMON         0x000000000017afcc    0x12fec MC6847.o
                0x000000000017afcc                semiGrFont1
                0x000000000017b2cc                VRAM
                0x000000000017b2d0                rept
                0x000000000017b2d4                cMap
                0x000000000017b2e8                framebuffer
                0x000000000018dee8                semiGrFont0
                0x000000000018dfa8                repb
                0x000000000018dfac                repl
                0x000000000018dfb0                frameBuf
                0x000000000018dfb4                repr
LOAD ../../lib/startup.o
LOAD main.o
LOAD kernel.o
LOAD Z80SPC.o
LOAD spcall.o
LOAD MC6847.o
LOAD AY8910.o
LOAD pwmsound.o
LOAD casswindow.o
LOAD ../../addon/ugui/libugui.a
LOAD ../../lib/usb/libusb.a
LOAD ../../lib/input/libinput.a
LOAD ../../lib/fs/fat/libfatfs.a
LOAD ../../lib/fs/libfs.a
LOAD ../../lib/libcircle8.a
OUTPUT(kernel.elf elf32-littlearm)

.ARM.attributes
                0x0000000000000000       0x2c
 .ARM.attributes
                0x0000000000000000       0x1a ../../lib/startup.o
 .ARM.attributes
                0x000000000000001a       0x30 main.o
 .ARM.attributes
                0x000000000000004a       0x30 kernel.o
 .ARM.attributes
                0x000000000000007a       0x30 Z80SPC.o
 .ARM.attributes
                0x00000000000000aa       0x2e spcall.o
 .ARM.attributes
                0x00000000000000d8       0x30 MC6847.o
 .ARM.attributes
                0x0000000000000108       0x30 AY8910.o
 .ARM.attributes
                0x0000000000000138       0x30 pwmsound.o
 .ARM.attributes
                0x0000000000000168       0x30 casswindow.o
 .ARM.attributes
                0x0000000000000198       0x30 ../../addon/ugui/libugui.a(ugui.o)
 .ARM.attributes
                0x00000000000001c8       0x30 ../../addon/ugui/libugui.a(uguicpp.o)
 .ARM.attributes
                0x00000000000001f8       0x30 ../../lib/usb/libusb.a(dwhcidevice.o)
 .ARM.attributes
                0x0000000000000228       0x30 ../../lib/usb/libusb.a(dwhciregister.o)
 .ARM.attributes
                0x0000000000000258       0x30 ../../lib/usb/libusb.a(dwhcixferstagedata.o)
 .ARM.attributes
                0x0000000000000288       0x30 ../../lib/usb/libusb.a(usbdevice.o)
 .ARM.attributes
                0x00000000000002b8       0x30 ../../lib/usb/libusb.a(usbendpoint.o)
 .ARM.attributes
                0x00000000000002e8       0x30 ../../lib/usb/libusb.a(usbhostcontroller.o)
 .ARM.attributes
                0x0000000000000318       0x30 ../../lib/usb/libusb.a(usbrequest.o)
 .ARM.attributes
                0x0000000000000348       0x30 ../../lib/usb/libusb.a(usbdevicefactory.o)
 .ARM.attributes
                0x0000000000000378       0x30 ../../lib/usb/libusb.a(usbstandardhub.o)
 .ARM.attributes
                0x00000000000003a8       0x30 ../../lib/usb/libusb.a(usbmassdevice.o)
 .ARM.attributes
                0x00000000000003d8       0x30 ../../lib/usb/libusb.a(dwhciframeschednper.o)
 .ARM.attributes
                0x0000000000000408       0x30 ../../lib/usb/libusb.a(dwhciframeschedper.o)
 .ARM.attributes
                0x0000000000000438       0x30 ../../lib/usb/libusb.a(usbkeyboard.o)
 .ARM.attributes
                0x0000000000000468       0x30 ../../lib/usb/libusb.a(dwhcirootport.o)
 .ARM.attributes
                0x0000000000000498       0x30 ../../lib/usb/libusb.a(usbhiddevice.o)
 .ARM.attributes
                0x00000000000004c8       0x30 ../../lib/usb/libusb.a(usbmouse.o)
 .ARM.attributes
                0x00000000000004f8       0x30 ../../lib/usb/libusb.a(usbgamepad.o)
 .ARM.attributes
                0x0000000000000528       0x30 ../../lib/usb/libusb.a(usbfunction.o)
 .ARM.attributes
                0x0000000000000558       0x30 ../../lib/usb/libusb.a(dwhciframeschednsplit.o)
 .ARM.attributes
                0x0000000000000588       0x30 ../../lib/usb/libusb.a(usbprinter.o)
 .ARM.attributes
                0x00000000000005b8       0x30 ../../lib/usb/libusb.a(usbbluetooth.o)
 .ARM.attributes
                0x00000000000005e8       0x30 ../../lib/usb/libusb.a(usbmidi.o)
 .ARM.attributes
                0x0000000000000618       0x30 ../../lib/usb/libusb.a(usbcdcethernet.o)
 .ARM.attributes
                0x0000000000000648       0x30 ../../lib/usb/libusb.a(usbconfigparser.o)
 .ARM.attributes
                0x0000000000000678       0x30 ../../lib/usb/libusb.a(usbstring.o)
 .ARM.attributes
                0x00000000000006a8       0x30 ../../lib/usb/libusb.a(smsc951x.o)
 .ARM.attributes
                0x00000000000006d8       0x30 ../../lib/usb/libusb.a(macaddress.o)
 .ARM.attributes
                0x0000000000000708       0x30 ../../lib/usb/libusb.a(netdevice.o)
 .ARM.attributes
                0x0000000000000738       0x30 ../../lib/input/libinput.a(keyboardbehaviour.o)
 .ARM.attributes
                0x0000000000000768       0x30 ../../lib/input/libinput.a(keymap.o)
 .ARM.attributes
                0x0000000000000798       0x30 ../../lib/input/libinput.a(mousebehaviour.o)
 .ARM.attributes
                0x00000000000007c8       0x30 ../../lib/input/libinput.a(touchscreen.o)
 .ARM.attributes
                0x00000000000007f8       0x30 ../../lib/fs/libfs.a(partitionmanager.o)
 .ARM.attributes
                0x0000000000000828       0x30 ../../lib/fs/libfs.a(partition.o)
 .ARM.attributes
                0x0000000000000858       0x30 ../../lib/libcircle8.a(actled.o)
 .ARM.attributes
                0x0000000000000888       0x30 ../../lib/libcircle8.a(bcmpropertytags.o)
 .ARM.attributes
                0x00000000000008b8       0x30 ../../lib/libcircle8.a(gpiopin.o)
 .ARM.attributes
                0x00000000000008e8       0x1a ../../lib/libcircle8.a(libstub.o)
 .ARM.attributes
                0x0000000000000902       0x30 ../../lib/libcircle8.a(memory.o)
 .ARM.attributes
                0x0000000000000932       0x30 ../../lib/libcircle8.a(new.o)
 .ARM.attributes
                0x0000000000000962       0x30 ../../lib/libcircle8.a(purecall.o)
 .ARM.attributes
                0x0000000000000992       0x30 ../../lib/libcircle8.a(synchronize.o)
 .ARM.attributes
                0x00000000000009c2       0x30 ../../lib/libcircle8.a(sysinit.o)
 .ARM.attributes
                0x00000000000009f2       0x30 ../../lib/libcircle8.a(timer.o)
 .ARM.attributes
                0x0000000000000a22       0x30 ../../lib/libcircle8.a(util.o)
 .ARM.attributes
                0x0000000000000a52       0x1a ../../lib/libcircle8.a(util_fast.o)
 .ARM.attributes
                0x0000000000000a6c       0x30 ../../lib/libcircle8.a(device.o)
 .ARM.attributes
                0x0000000000000a9c       0x30 ../../lib/libcircle8.a(koptions.o)
 .ARM.attributes
                0x0000000000000acc       0x30 ../../lib/libcircle8.a(pagetable.o)
 .ARM.attributes
                0x0000000000000afc       0x30 ../../lib/libcircle8.a(screen.o)
 .ARM.attributes
                0x0000000000000b2c       0x30 ../../lib/libcircle8.a(assert.o)
 .ARM.attributes
                0x0000000000000b5c       0x30 ../../lib/libcircle8.a(chargenerator.o)
 .ARM.attributes
                0x0000000000000b8c       0x30 ../../lib/libcircle8.a(debug.o)
 .ARM.attributes
                0x0000000000000bbc       0x30 ../../lib/libcircle8.a(devicenameservice.o)
 .ARM.attributes
                0x0000000000000bec       0x30 ../../lib/libcircle8.a(logger.o)
 .ARM.attributes
                0x0000000000000c1c       0x30 ../../lib/libcircle8.a(serial.o)
 .ARM.attributes
                0x0000000000000c4c       0x30 ../../lib/libcircle8.a(string.o)
 .ARM.attributes
                0x0000000000000c7c       0x1a ../../lib/libcircle8.a(delayloop.o)
 .ARM.attributes
                0x0000000000000c96       0x30 ../../lib/libcircle8.a(exceptionhandler.o)
 .ARM.attributes
                0x0000000000000cc6       0x1a ../../lib/libcircle8.a(exceptionstub.o)
 .ARM.attributes
                0x0000000000000ce0       0x30 ../../lib/libcircle8.a(interrupt.o)
 .ARM.attributes
                0x0000000000000d10       0x30 ../../lib/libcircle8.a(gpiomanager.o)
 .ARM.attributes
                0x0000000000000d40       0x30 ../../lib/libcircle8.a(pwmsoundbasedevice.o)
 .ARM.attributes
                0x0000000000000d70       0x30 ../../lib/libcircle8.a(virtualgpiopin.o)
 .ARM.attributes
                0x0000000000000da0       0x30 ../../lib/libcircle8.a(machineinfo.o)
 .ARM.attributes
                0x0000000000000dd0       0x30 ../../lib/libcircle8.a(bcmrandom.o)
 .ARM.attributes
                0x0000000000000e00       0x30 ../../lib/libcircle8.a(ptrlist.o)
 .ARM.attributes
                0x0000000000000e30       0x30 ../../lib/libcircle8.a(alloc.o)
 .ARM.attributes
                0x0000000000000e60       0x30 ../../lib/libcircle8.a(bcmmailbox.o)
 .ARM.attributes
                0x0000000000000e90       0x30 ../../lib/libcircle8.a(libhelper.o)
 .ARM.attributes
                0x0000000000000ec0       0x30 ../../lib/libcircle8.a(bcmframebuffer.o)
 .ARM.attributes
                0x0000000000000ef0       0x30 ../../lib/libcircle8.a(gpioclock.o)

.comment        0x0000000000000000       0x7e
 .comment       0x0000000000000000       0x7e main.o
                                         0x7f (size before relaxing)
 .comment       0x000000000000007e       0x7f kernel.o
 .comment       0x000000000000007e       0x7f Z80SPC.o
 .comment       0x000000000000007e       0x7f spcall.o
 .comment       0x000000000000007e       0x7f MC6847.o
 .comment       0x000000000000007e       0x7f AY8910.o
 .comment       0x000000000000007e       0x7f pwmsound.o
 .comment       0x000000000000007e       0x7f casswindow.o
 .comment       0x000000000000007e       0x7f ../../addon/ugui/libugui.a(ugui.o)
 .comment       0x000000000000007e       0x7f ../../addon/ugui/libugui.a(uguicpp.o)
 .comment       0x000000000000007e       0x7f ../../lib/usb/libusb.a(dwhcidevice.o)
 .comment       0x000000000000007e       0x7f ../../lib/usb/libusb.a(dwhciregister.o)
 .comment       0x000000000000007e       0x7f ../../lib/usb/libusb.a(dwhcixferstagedata.o)
 .comment       0x000000000000007e       0x7f ../../lib/usb/libusb.a(usbdevice.o)
 .comment       0x000000000000007e       0x7f ../../lib/usb/libusb.a(usbendpoint.o)
 .comment       0x000000000000007e       0x7f ../../lib/usb/libusb.a(usbhostcontroller.o)
 .comment       0x000000000000007e       0x7f ../../lib/usb/libusb.a(usbrequest.o)
 .comment       0x000000000000007e       0x7f ../../lib/usb/libusb.a(usbdevicefactory.o)
 .comment       0x000000000000007e       0x7f ../../lib/usb/libusb.a(usbstandardhub.o)
 .comment       0x000000000000007e       0x7f ../../lib/usb/libusb.a(usbmassdevice.o)
 .comment       0x000000000000007e       0x7f ../../lib/usb/libusb.a(dwhciframeschednper.o)
 .comment       0x000000000000007e       0x7f ../../lib/usb/libusb.a(dwhciframeschedper.o)
 .comment       0x000000000000007e       0x7f ../../lib/usb/libusb.a(usbkeyboard.o)
 .comment       0x000000000000007e       0x7f ../../lib/usb/libusb.a(dwhcirootport.o)
 .comment       0x000000000000007e       0x7f ../../lib/usb/libusb.a(usbhiddevice.o)
 .comment       0x000000000000007e       0x7f ../../lib/usb/libusb.a(usbmouse.o)
 .comment       0x000000000000007e       0x7f ../../lib/usb/libusb.a(usbgamepad.o)
 .comment       0x000000000000007e       0x7f ../../lib/usb/libusb.a(usbfunction.o)
 .comment       0x000000000000007e       0x7f ../../lib/usb/libusb.a(dwhciframeschednsplit.o)
 .comment       0x000000000000007e       0x7f ../../lib/usb/libusb.a(usbprinter.o)
 .comment       0x000000000000007e       0x7f ../../lib/usb/libusb.a(usbbluetooth.o)
 .comment       0x000000000000007e       0x7f ../../lib/usb/libusb.a(usbmidi.o)
 .comment       0x000000000000007e       0x7f ../../lib/usb/libusb.a(usbcdcethernet.o)
 .comment       0x000000000000007e       0x7f ../../lib/usb/libusb.a(usbconfigparser.o)
 .comment       0x000000000000007e       0x7f ../../lib/usb/libusb.a(usbstring.o)
 .comment       0x000000000000007e       0x7f ../../lib/usb/libusb.a(smsc951x.o)
 .comment       0x000000000000007e       0x7f ../../lib/usb/libusb.a(macaddress.o)
 .comment       0x000000000000007e       0x7f ../../lib/usb/libusb.a(netdevice.o)
 .comment       0x000000000000007e       0x7f ../../lib/input/libinput.a(keyboardbehaviour.o)
 .comment       0x000000000000007e       0x7f ../../lib/input/libinput.a(keymap.o)
 .comment       0x000000000000007e       0x7f ../../lib/input/libinput.a(mousebehaviour.o)
 .comment       0x000000000000007e       0x7f ../../lib/input/libinput.a(touchscreen.o)
 .comment       0x000000000000007e       0x7f ../../lib/fs/libfs.a(partitionmanager.o)
 .comment       0x000000000000007e       0x7f ../../lib/fs/libfs.a(partition.o)
 .comment       0x000000000000007e       0x7f ../../lib/libcircle8.a(actled.o)
 .comment       0x000000000000007e       0x7f ../../lib/libcircle8.a(bcmpropertytags.o)
 .comment       0x000000000000007e       0x7f ../../lib/libcircle8.a(gpiopin.o)
 .comment       0x000000000000007e       0x7f ../../lib/libcircle8.a(memory.o)
 .comment       0x000000000000007e       0x7f ../../lib/libcircle8.a(new.o)
 .comment       0x000000000000007e       0x7f ../../lib/libcircle8.a(purecall.o)
 .comment       0x000000000000007e       0x7f ../../lib/libcircle8.a(synchronize.o)
 .comment       0x000000000000007e       0x7f ../../lib/libcircle8.a(sysinit.o)
 .comment       0x000000000000007e       0x7f ../../lib/libcircle8.a(timer.o)
 .comment       0x000000000000007e       0x7f ../../lib/libcircle8.a(util.o)
 .comment       0x000000000000007e       0x7f ../../lib/libcircle8.a(device.o)
 .comment       0x000000000000007e       0x7f ../../lib/libcircle8.a(koptions.o)
 .comment       0x000000000000007e       0x7f ../../lib/libcircle8.a(pagetable.o)
 .comment       0x000000000000007e       0x7f ../../lib/libcircle8.a(screen.o)
 .comment       0x000000000000007e       0x7f ../../lib/libcircle8.a(assert.o)
 .comment       0x000000000000007e       0x7f ../../lib/libcircle8.a(chargenerator.o)
 .comment       0x000000000000007e       0x7f ../../lib/libcircle8.a(debug.o)
 .comment       0x000000000000007e       0x7f ../../lib/libcircle8.a(devicenameservice.o)
 .comment       0x000000000000007e       0x7f ../../lib/libcircle8.a(logger.o)
 .comment       0x000000000000007e       0x7f ../../lib/libcircle8.a(serial.o)
 .comment       0x000000000000007e       0x7f ../../lib/libcircle8.a(string.o)
 .comment       0x000000000000007e       0x7f ../../lib/libcircle8.a(exceptionhandler.o)
 .comment       0x000000000000007e       0x7f ../../lib/libcircle8.a(interrupt.o)
 .comment       0x000000000000007e       0x7f ../../lib/libcircle8.a(gpiomanager.o)
 .comment       0x000000000000007e       0x7f ../../lib/libcircle8.a(pwmsoundbasedevice.o)
 .comment       0x000000000000007e       0x7f ../../lib/libcircle8.a(virtualgpiopin.o)
 .comment       0x000000000000007e       0x7f ../../lib/libcircle8.a(machineinfo.o)
 .comment       0x000000000000007e       0x7f ../../lib/libcircle8.a(bcmrandom.o)
 .comment       0x000000000000007e       0x7f ../../lib/libcircle8.a(ptrlist.o)
 .comment       0x000000000000007e       0x7f ../../lib/libcircle8.a(alloc.o)
 .comment       0x000000000000007e       0x7f ../../lib/libcircle8.a(bcmmailbox.o)
 .comment       0x000000000000007e       0x7f ../../lib/libcircle8.a(libhelper.o)
 .comment       0x000000000000007e       0x7f ../../lib/libcircle8.a(bcmframebuffer.o)
 .comment       0x000000000000007e       0x7f ../../lib/libcircle8.a(gpioclock.o)

.debug_info     0x0000000000000000    0x6937a
 .debug_info    0x0000000000000000     0x23df main.o
 .debug_info    0x00000000000023df     0x4017 kernel.o
 .debug_info    0x00000000000063f6     0x9cf8 Z80SPC.o
 .debug_info    0x00000000000100ee       0x4e spcall.o
 .debug_info    0x000000000001013c      0xc5d MC6847.o
 .debug_info    0x0000000000010d99     0x163e AY8910.o
 .debug_info    0x00000000000123d7     0x2921 pwmsound.o
 .debug_info    0x0000000000014cf8      0xa0f casswindow.o
 .debug_info    0x0000000000015707     0x6ce4 ../../addon/ugui/libugui.a(ugui.o)
 .debug_info    0x000000000001c3eb     0x1901 ../../addon/ugui/libugui.a(uguicpp.o)
 .debug_info    0x000000000001dcec     0x631d ../../lib/usb/libusb.a(dwhcidevice.o)
 .debug_info    0x0000000000024009     0x1206 ../../lib/usb/libusb.a(dwhciregister.o)
 .debug_info    0x000000000002520f     0x1a39 ../../lib/usb/libusb.a(dwhcixferstagedata.o)
 .debug_info    0x0000000000026c48     0x297b ../../lib/usb/libusb.a(usbdevice.o)
 .debug_info    0x00000000000295c3      0x9fc ../../lib/usb/libusb.a(usbendpoint.o)
 .debug_info    0x0000000000029fbf     0x1594 ../../lib/usb/libusb.a(usbhostcontroller.o)
 .debug_info    0x000000000002b553      0xb57 ../../lib/usb/libusb.a(usbrequest.o)
 .debug_info    0x000000000002c0aa      0x58b ../../lib/usb/libusb.a(usbdevicefactory.o)
 .debug_info    0x000000000002c635     0x2232 ../../lib/usb/libusb.a(usbstandardhub.o)
 .debug_info    0x000000000002e867     0x28ad ../../lib/usb/libusb.a(usbmassdevice.o)
 .debug_info    0x0000000000031114     0x11c9 ../../lib/usb/libusb.a(dwhciframeschednper.o)
 .debug_info    0x00000000000322dd     0x1441 ../../lib/usb/libusb.a(dwhciframeschedper.o)
 .debug_info    0x000000000003371e     0x1ae4 ../../lib/usb/libusb.a(usbkeyboard.o)
 .debug_info    0x0000000000035202      0xe3d ../../lib/usb/libusb.a(dwhcirootport.o)
 .debug_info    0x000000000003603f     0x19ae ../../lib/usb/libusb.a(usbhiddevice.o)
 .debug_info    0x00000000000379ed     0x14ce ../../lib/usb/libusb.a(usbmouse.o)
 .debug_info    0x0000000000038ebb     0x1bb5 ../../lib/usb/libusb.a(usbgamepad.o)
 .debug_info    0x000000000003aa70     0x1c40 ../../lib/usb/libusb.a(usbfunction.o)
 .debug_info    0x000000000003c6b0      0x86f ../../lib/usb/libusb.a(dwhciframeschednsplit.o)
 .debug_info    0x000000000003cf1f     0x1595 ../../lib/usb/libusb.a(usbprinter.o)
 .debug_info    0x000000000003e4b4     0x1cd5 ../../lib/usb/libusb.a(usbbluetooth.o)
 .debug_info    0x0000000000040189     0x1f6f ../../lib/usb/libusb.a(usbmidi.o)
 .debug_info    0x00000000000420f8     0x1ec2 ../../lib/usb/libusb.a(usbcdcethernet.o)
 .debug_info    0x0000000000043fba     0x12d1 ../../lib/usb/libusb.a(usbconfigparser.o)
 .debug_info    0x000000000004528b      0x93f ../../lib/usb/libusb.a(usbstring.o)
 .debug_info    0x0000000000045bca     0x25ce ../../lib/usb/libusb.a(smsc951x.o)
 .debug_info    0x0000000000048198      0x7a1 ../../lib/usb/libusb.a(macaddress.o)
 .debug_info    0x0000000000048939      0x79e ../../lib/usb/libusb.a(netdevice.o)
 .debug_info    0x00000000000490d7     0x12ac ../../lib/input/libinput.a(keyboardbehaviour.o)
 .debug_info    0x000000000004a383      0xb71 ../../lib/input/libinput.a(keymap.o)
 .debug_info    0x000000000004aef4      0xae4 ../../lib/input/libinput.a(mousebehaviour.o)
 .debug_info    0x000000000004b9d8     0x1475 ../../lib/input/libinput.a(touchscreen.o)
 .debug_info    0x000000000004ce4d     0x10aa ../../lib/fs/libfs.a(partitionmanager.o)
 .debug_info    0x000000000004def7      0x56f ../../lib/fs/libfs.a(partition.o)
 .debug_info    0x000000000004e466      0xff9 ../../lib/libcircle8.a(actled.o)
 .debug_info    0x000000000004f45f      0x60a ../../lib/libcircle8.a(bcmpropertytags.o)
 .debug_info    0x000000000004fa69     0x233e ../../lib/libcircle8.a(gpiopin.o)
 .debug_info    0x0000000000051da7      0xb26 ../../lib/libcircle8.a(memory.o)
 .debug_info    0x00000000000528cd      0x1a7 ../../lib/libcircle8.a(new.o)
 .debug_info    0x0000000000052a74       0x68 ../../lib/libcircle8.a(purecall.o)
 .debug_info    0x0000000000052adc      0x1df ../../lib/libcircle8.a(synchronize.o)
 .debug_info    0x0000000000052cbb      0x56e ../../lib/libcircle8.a(sysinit.o)
 .debug_info    0x0000000000053229     0x1e07 ../../lib/libcircle8.a(timer.o)
 .debug_info    0x0000000000055030      0x459 ../../lib/libcircle8.a(util.o)
 .debug_info    0x0000000000055489      0x301 ../../lib/libcircle8.a(device.o)
 .debug_info    0x000000000005578a      0xe05 ../../lib/libcircle8.a(koptions.o)
 .debug_info    0x000000000005658f      0x4a7 ../../lib/libcircle8.a(pagetable.o)
 .debug_info    0x0000000000056a36     0x29ca ../../lib/libcircle8.a(screen.o)
 .debug_info    0x0000000000059400      0xbb6 ../../lib/libcircle8.a(assert.o)
 .debug_info    0x0000000000059fb6      0x382 ../../lib/libcircle8.a(chargenerator.o)
 .debug_info    0x000000000005a338      0xc00 ../../lib/libcircle8.a(debug.o)
 .debug_info    0x000000000005af38      0x714 ../../lib/libcircle8.a(devicenameservice.o)
 .debug_info    0x000000000005b64c     0x15c0 ../../lib/libcircle8.a(logger.o)
 .debug_info    0x000000000005cc0c     0x1767 ../../lib/libcircle8.a(serial.o)
 .debug_info    0x000000000005e373     0x18fc ../../lib/libcircle8.a(string.o)
 .debug_info    0x000000000005fc6f     0x1026 ../../lib/libcircle8.a(exceptionhandler.o)
 .debug_info    0x0000000000060c95      0xb23 ../../lib/libcircle8.a(interrupt.o)
 .debug_info    0x00000000000617b8      0x96b ../../lib/libcircle8.a(gpiomanager.o)
 .debug_info    0x0000000000062123     0x1cd6 ../../lib/libcircle8.a(pwmsoundbasedevice.o)
 .debug_info    0x0000000000063df9      0x8f8 ../../lib/libcircle8.a(virtualgpiopin.o)
 .debug_info    0x00000000000646f1      0xbf5 ../../lib/libcircle8.a(machineinfo.o)
 .debug_info    0x00000000000652e6      0x4c6 ../../lib/libcircle8.a(bcmrandom.o)
 .debug_info    0x00000000000657ac      0x788 ../../lib/libcircle8.a(ptrlist.o)
 .debug_info    0x0000000000065f34      0x738 ../../lib/libcircle8.a(alloc.o)
 .debug_info    0x000000000006666c      0xe25 ../../lib/libcircle8.a(bcmmailbox.o)
 .debug_info    0x0000000000067491      0x3c9 ../../lib/libcircle8.a(libhelper.o)
 .debug_info    0x000000000006785a      0xcfe ../../lib/libcircle8.a(bcmframebuffer.o)
 .debug_info    0x0000000000068558      0xe22 ../../lib/libcircle8.a(gpioclock.o)

.debug_abbrev   0x0000000000000000    0x11abb
 .debug_abbrev  0x0000000000000000      0x4bd main.o
 .debug_abbrev  0x00000000000004bd      0x88b kernel.o
 .debug_abbrev  0x0000000000000d48      0x39b Z80SPC.o
 .debug_abbrev  0x00000000000010e3       0x3e spcall.o
 .debug_abbrev  0x0000000000001121      0x1e3 MC6847.o
 .debug_abbrev  0x0000000000001304      0x567 AY8910.o
 .debug_abbrev  0x000000000000186b      0x589 pwmsound.o
 .debug_abbrev  0x0000000000001df4      0x29e casswindow.o
 .debug_abbrev  0x0000000000002092      0x416 ../../addon/ugui/libugui.a(ugui.o)
 .debug_abbrev  0x00000000000024a8      0x481 ../../addon/ugui/libugui.a(uguicpp.o)
 .debug_abbrev  0x0000000000002929      0x6f8 ../../lib/usb/libusb.a(dwhcidevice.o)
 .debug_abbrev  0x0000000000003021      0x3a4 ../../lib/usb/libusb.a(dwhciregister.o)
 .debug_abbrev  0x00000000000033c5      0x376 ../../lib/usb/libusb.a(dwhcixferstagedata.o)
 .debug_abbrev  0x000000000000373b      0x60d ../../lib/usb/libusb.a(usbdevice.o)
 .debug_abbrev  0x0000000000003d48      0x280 ../../lib/usb/libusb.a(usbendpoint.o)
 .debug_abbrev  0x0000000000003fc8      0x424 ../../lib/usb/libusb.a(usbhostcontroller.o)
 .debug_abbrev  0x00000000000043ec      0x23f ../../lib/usb/libusb.a(usbrequest.o)
 .debug_abbrev  0x000000000000462b      0x163 ../../lib/usb/libusb.a(usbdevicefactory.o)
 .debug_abbrev  0x000000000000478e      0x4f5 ../../lib/usb/libusb.a(usbstandardhub.o)
 .debug_abbrev  0x0000000000004c83      0x556 ../../lib/usb/libusb.a(usbmassdevice.o)
 .debug_abbrev  0x00000000000051d9      0x499 ../../lib/usb/libusb.a(dwhciframeschednper.o)
 .debug_abbrev  0x0000000000005672      0x50d ../../lib/usb/libusb.a(dwhciframeschedper.o)
 .debug_abbrev  0x0000000000005b7f      0x537 ../../lib/usb/libusb.a(usbkeyboard.o)
 .debug_abbrev  0x00000000000060b6      0x37e ../../lib/usb/libusb.a(dwhcirootport.o)
 .debug_abbrev  0x0000000000006434      0x445 ../../lib/usb/libusb.a(usbhiddevice.o)
 .debug_abbrev  0x0000000000006879      0x4a6 ../../lib/usb/libusb.a(usbmouse.o)
 .debug_abbrev  0x0000000000006d1f      0x581 ../../lib/usb/libusb.a(usbgamepad.o)
 .debug_abbrev  0x00000000000072a0      0x461 ../../lib/usb/libusb.a(usbfunction.o)
 .debug_abbrev  0x0000000000007701      0x2f3 ../../lib/usb/libusb.a(dwhciframeschednsplit.o)
 .debug_abbrev  0x00000000000079f4      0x40b ../../lib/usb/libusb.a(usbprinter.o)
 .debug_abbrev  0x0000000000007dff      0x459 ../../lib/usb/libusb.a(usbbluetooth.o)
 .debug_abbrev  0x0000000000008258      0x480 ../../lib/usb/libusb.a(usbmidi.o)
 .debug_abbrev  0x00000000000086d8      0x455 ../../lib/usb/libusb.a(usbcdcethernet.o)
 .debug_abbrev  0x0000000000008b2d      0x3db ../../lib/usb/libusb.a(usbconfigparser.o)
 .debug_abbrev  0x0000000000008f08      0x2a4 ../../lib/usb/libusb.a(usbstring.o)
 .debug_abbrev  0x00000000000091ac      0x55c ../../lib/usb/libusb.a(smsc951x.o)
 .debug_abbrev  0x0000000000009708      0x257 ../../lib/usb/libusb.a(macaddress.o)
 .debug_abbrev  0x000000000000995f      0x2cf ../../lib/usb/libusb.a(netdevice.o)
 .debug_abbrev  0x0000000000009c2e      0x403 ../../lib/input/libinput.a(keyboardbehaviour.o)
 .debug_abbrev  0x000000000000a031      0x2ff ../../lib/input/libinput.a(keymap.o)
 .debug_abbrev  0x000000000000a330      0x2f1 ../../lib/input/libinput.a(mousebehaviour.o)
 .debug_abbrev  0x000000000000a621      0x441 ../../lib/input/libinput.a(touchscreen.o)
 .debug_abbrev  0x000000000000aa62      0x408 ../../lib/fs/libfs.a(partitionmanager.o)
 .debug_abbrev  0x000000000000ae6a      0x280 ../../lib/fs/libfs.a(partition.o)
 .debug_abbrev  0x000000000000b0ea      0x436 ../../lib/libcircle8.a(actled.o)
 .debug_abbrev  0x000000000000b520      0x223 ../../lib/libcircle8.a(bcmpropertytags.o)
 .debug_abbrev  0x000000000000b743      0x5c3 ../../lib/libcircle8.a(gpiopin.o)
 .debug_abbrev  0x000000000000bd06      0x2a5 ../../lib/libcircle8.a(memory.o)
 .debug_abbrev  0x000000000000bfab       0xc7 ../../lib/libcircle8.a(new.o)
 .debug_abbrev  0x000000000000c072       0x57 ../../lib/libcircle8.a(purecall.o)
 .debug_abbrev  0x000000000000c0c9       0xd1 ../../lib/libcircle8.a(synchronize.o)
 .debug_abbrev  0x000000000000c19a      0x24e ../../lib/libcircle8.a(sysinit.o)
 .debug_abbrev  0x000000000000c3e8      0x5f0 ../../lib/libcircle8.a(timer.o)
 .debug_abbrev  0x000000000000c9d8      0x17c ../../lib/libcircle8.a(util.o)
 .debug_abbrev  0x000000000000cb54      0x1d3 ../../lib/libcircle8.a(device.o)
 .debug_abbrev  0x000000000000cd27      0x3df ../../lib/libcircle8.a(koptions.o)
 .debug_abbrev  0x000000000000d106      0x20e ../../lib/libcircle8.a(pagetable.o)
 .debug_abbrev  0x000000000000d314      0x540 ../../lib/libcircle8.a(screen.o)
 .debug_abbrev  0x000000000000d854      0x2e8 ../../lib/libcircle8.a(assert.o)
 .debug_abbrev  0x000000000000db3c      0x193 ../../lib/libcircle8.a(chargenerator.o)
 .debug_abbrev  0x000000000000dccf      0x2e0 ../../lib/libcircle8.a(debug.o)
 .debug_abbrev  0x000000000000dfaf      0x29f ../../lib/libcircle8.a(devicenameservice.o)
 .debug_abbrev  0x000000000000e24e      0x430 ../../lib/libcircle8.a(logger.o)
 .debug_abbrev  0x000000000000e67e      0x514 ../../lib/libcircle8.a(serial.o)
 .debug_abbrev  0x000000000000eb92      0x446 ../../lib/libcircle8.a(string.o)
 .debug_abbrev  0x000000000000efd8      0x3fb ../../lib/libcircle8.a(exceptionhandler.o)
 .debug_abbrev  0x000000000000f3d3      0x38a ../../lib/libcircle8.a(interrupt.o)
 .debug_abbrev  0x000000000000f75d      0x33e ../../lib/libcircle8.a(gpiomanager.o)
 .debug_abbrev  0x000000000000fa9b      0x582 ../../lib/libcircle8.a(pwmsoundbasedevice.o)
 .debug_abbrev  0x000000000001001d      0x3d7 ../../lib/libcircle8.a(virtualgpiopin.o)
 .debug_abbrev  0x00000000000103f4      0x371 ../../lib/libcircle8.a(machineinfo.o)
 .debug_abbrev  0x0000000000010765      0x253 ../../lib/libcircle8.a(bcmrandom.o)
 .debug_abbrev  0x00000000000109b8      0x1b8 ../../lib/libcircle8.a(ptrlist.o)
 .debug_abbrev  0x0000000000010b70      0x28c ../../lib/libcircle8.a(alloc.o)
 .debug_abbrev  0x0000000000010dfc      0x3cc ../../lib/libcircle8.a(bcmmailbox.o)
 .debug_abbrev  0x00000000000111c8      0x1b9 ../../lib/libcircle8.a(libhelper.o)
 .debug_abbrev  0x0000000000011381      0x35b ../../lib/libcircle8.a(bcmframebuffer.o)
 .debug_abbrev  0x00000000000116dc      0x3df ../../lib/libcircle8.a(gpioclock.o)

.debug_loc      0x0000000000000000    0x26c4a
 .debug_loc     0x0000000000000000       0x1e main.o
 .debug_loc     0x000000000000001e      0x84a kernel.o
 .debug_loc     0x0000000000000868     0x6559 Z80SPC.o
 .debug_loc     0x0000000000006dc1      0xc4c MC6847.o
 .debug_loc     0x0000000000007a0d      0xa86 AY8910.o
 .debug_loc     0x0000000000008493      0x299 pwmsound.o
 .debug_loc     0x000000000000872c       0xfc casswindow.o
 .debug_loc     0x0000000000008828     0x8783 ../../addon/ugui/libugui.a(ugui.o)
 .debug_loc     0x0000000000010fab      0x501 ../../addon/ugui/libugui.a(uguicpp.o)
 .debug_loc     0x00000000000114ac     0x182a ../../lib/usb/libusb.a(dwhcidevice.o)
 .debug_loc     0x0000000000012cd6      0x287 ../../lib/usb/libusb.a(dwhciregister.o)
 .debug_loc     0x0000000000012f5d      0x7f8 ../../lib/usb/libusb.a(dwhcixferstagedata.o)
 .debug_loc     0x0000000000013755      0x861 ../../lib/usb/libusb.a(usbdevice.o)
 .debug_loc     0x0000000000013fb6      0x4b3 ../../lib/usb/libusb.a(usbendpoint.o)
 .debug_loc     0x0000000000014469      0x32b ../../lib/usb/libusb.a(usbhostcontroller.o)
 .debug_loc     0x0000000000014794      0x337 ../../lib/usb/libusb.a(usbrequest.o)
 .debug_loc     0x0000000000014acb      0x16f ../../lib/usb/libusb.a(usbdevicefactory.o)
 .debug_loc     0x0000000000014c3a      0x480 ../../lib/usb/libusb.a(usbstandardhub.o)
 .debug_loc     0x00000000000150ba      0x862 ../../lib/usb/libusb.a(usbmassdevice.o)
 .debug_loc     0x000000000001591c      0x326 ../../lib/usb/libusb.a(dwhciframeschednper.o)
 .debug_loc     0x0000000000015c42      0x384 ../../lib/usb/libusb.a(dwhciframeschedper.o)
 .debug_loc     0x0000000000015fc6      0x46d ../../lib/usb/libusb.a(usbkeyboard.o)
 .debug_loc     0x0000000000016433       0x87 ../../lib/usb/libusb.a(dwhcirootport.o)
 .debug_loc     0x00000000000164ba      0x394 ../../lib/usb/libusb.a(usbhiddevice.o)
 .debug_loc     0x000000000001684e      0x36a ../../lib/usb/libusb.a(usbmouse.o)
 .debug_loc     0x0000000000016bb8      0xdaa ../../lib/usb/libusb.a(usbgamepad.o)
 .debug_loc     0x0000000000017962      0x4c1 ../../lib/usb/libusb.a(usbfunction.o)
 .debug_loc     0x0000000000017e23       0xef ../../lib/usb/libusb.a(dwhciframeschednsplit.o)
 .debug_loc     0x0000000000017f12      0x237 ../../lib/usb/libusb.a(usbprinter.o)
 .debug_loc     0x0000000000018149      0x481 ../../lib/usb/libusb.a(usbbluetooth.o)
 .debug_loc     0x00000000000185ca      0x713 ../../lib/usb/libusb.a(usbmidi.o)
 .debug_loc     0x0000000000018cdd      0x5ec ../../lib/usb/libusb.a(usbcdcethernet.o)
 .debug_loc     0x00000000000192c9      0x4f5 ../../lib/usb/libusb.a(usbconfigparser.o)
 .debug_loc     0x00000000000197be      0x33c ../../lib/usb/libusb.a(usbstring.o)
 .debug_loc     0x0000000000019afa      0x66c ../../lib/usb/libusb.a(smsc951x.o)
 .debug_loc     0x000000000001a166      0x35a ../../lib/usb/libusb.a(macaddress.o)
 .debug_loc     0x000000000001a4c0       0xc5 ../../lib/usb/libusb.a(netdevice.o)
 .debug_loc     0x000000000001a585      0x43b ../../lib/input/libinput.a(keyboardbehaviour.o)
 .debug_loc     0x000000000001a9c0      0x55c ../../lib/input/libinput.a(keymap.o)
 .debug_loc     0x000000000001af1c      0x49c ../../lib/input/libinput.a(mousebehaviour.o)
 .debug_loc     0x000000000001b3b8      0x246 ../../lib/input/libinput.a(touchscreen.o)
 .debug_loc     0x000000000001b5fe      0x154 ../../lib/fs/libfs.a(partitionmanager.o)
 .debug_loc     0x000000000001b752      0x454 ../../lib/fs/libfs.a(partition.o)
 .debug_loc     0x000000000001bba6      0x289 ../../lib/libcircle8.a(actled.o)
 .debug_loc     0x000000000001be2f      0x22c ../../lib/libcircle8.a(bcmpropertytags.o)
 .debug_loc     0x000000000001c05b      0xe9b ../../lib/libcircle8.a(gpiopin.o)
 .debug_loc     0x000000000001cef6      0x2d0 ../../lib/libcircle8.a(memory.o)
 .debug_loc     0x000000000001d1c6       0x84 ../../lib/libcircle8.a(new.o)
 .debug_loc     0x000000000001d24a       0x8d ../../lib/libcircle8.a(synchronize.o)
 .debug_loc     0x000000000001d2d7       0x94 ../../lib/libcircle8.a(sysinit.o)
 .debug_loc     0x000000000001d36b      0xf4f ../../lib/libcircle8.a(timer.o)
 .debug_loc     0x000000000001e2ba      0x829 ../../lib/libcircle8.a(util.o)
 .debug_loc     0x000000000001eae3       0x60 ../../lib/libcircle8.a(device.o)
 .debug_loc     0x000000000001eb43      0x353 ../../lib/libcircle8.a(koptions.o)
 .debug_loc     0x000000000001ee96      0x111 ../../lib/libcircle8.a(pagetable.o)
 .debug_loc     0x000000000001efa7     0x1635 ../../lib/libcircle8.a(screen.o)
 .debug_loc     0x00000000000205dc       0x84 ../../lib/libcircle8.a(assert.o)
 .debug_loc     0x0000000000020660      0x1cf ../../lib/libcircle8.a(chargenerator.o)
 .debug_loc     0x000000000002082f      0x189 ../../lib/libcircle8.a(debug.o)
 .debug_loc     0x00000000000209b8      0x371 ../../lib/libcircle8.a(devicenameservice.o)
 .debug_loc     0x0000000000020d29      0x4d8 ../../lib/libcircle8.a(logger.o)
 .debug_loc     0x0000000000021201      0xda5 ../../lib/libcircle8.a(serial.o)
 .debug_loc     0x0000000000021fa6     0x1b56 ../../lib/libcircle8.a(string.o)
 .debug_loc     0x0000000000023afc      0x2a4 ../../lib/libcircle8.a(exceptionhandler.o)
 .debug_loc     0x0000000000023da0      0x67d ../../lib/libcircle8.a(interrupt.o)
 .debug_loc     0x000000000002441d      0x3cc ../../lib/libcircle8.a(gpiomanager.o)
 .debug_loc     0x00000000000247e9      0x875 ../../lib/libcircle8.a(pwmsoundbasedevice.o)
 .debug_loc     0x000000000002505e      0x374 ../../lib/libcircle8.a(virtualgpiopin.o)
 .debug_loc     0x00000000000253d2      0x2f5 ../../lib/libcircle8.a(machineinfo.o)
 .debug_loc     0x00000000000256c7      0x173 ../../lib/libcircle8.a(bcmrandom.o)
 .debug_loc     0x000000000002583a      0x370 ../../lib/libcircle8.a(ptrlist.o)
 .debug_loc     0x0000000000025baa      0x4e6 ../../lib/libcircle8.a(alloc.o)
 .debug_loc     0x0000000000026090      0x24b ../../lib/libcircle8.a(bcmmailbox.o)
 .debug_loc     0x00000000000262db      0x2a5 ../../lib/libcircle8.a(libhelper.o)
 .debug_loc     0x0000000000026580      0x3a7 ../../lib/libcircle8.a(bcmframebuffer.o)
 .debug_loc     0x0000000000026927      0x323 ../../lib/libcircle8.a(gpioclock.o)

.debug_aranges  0x0000000000000000      0x9e0
 .debug_aranges
                0x0000000000000000       0x28 main.o
 .debug_aranges
                0x0000000000000028       0x20 kernel.o
 .debug_aranges
                0x0000000000000048       0x20 Z80SPC.o
 .debug_aranges
                0x0000000000000068       0x18 spcall.o
 .debug_aranges
                0x0000000000000080       0x20 MC6847.o
 .debug_aranges
                0x00000000000000a0       0x20 AY8910.o
 .debug_aranges
                0x00000000000000c0       0x20 pwmsound.o
 .debug_aranges
                0x00000000000000e0       0x20 casswindow.o
 .debug_aranges
                0x0000000000000100       0x20 ../../addon/ugui/libugui.a(ugui.o)
 .debug_aranges
                0x0000000000000120       0x20 ../../addon/ugui/libugui.a(uguicpp.o)
 .debug_aranges
                0x0000000000000140       0x20 ../../lib/usb/libusb.a(dwhcidevice.o)
 .debug_aranges
                0x0000000000000160       0x20 ../../lib/usb/libusb.a(dwhciregister.o)
 .debug_aranges
                0x0000000000000180       0x20 ../../lib/usb/libusb.a(dwhcixferstagedata.o)
 .debug_aranges
                0x00000000000001a0       0x20 ../../lib/usb/libusb.a(usbdevice.o)
 .debug_aranges
                0x00000000000001c0       0x20 ../../lib/usb/libusb.a(usbendpoint.o)
 .debug_aranges
                0x00000000000001e0       0x20 ../../lib/usb/libusb.a(usbhostcontroller.o)
 .debug_aranges
                0x0000000000000200       0x20 ../../lib/usb/libusb.a(usbrequest.o)
 .debug_aranges
                0x0000000000000220       0x20 ../../lib/usb/libusb.a(usbdevicefactory.o)
 .debug_aranges
                0x0000000000000240       0x20 ../../lib/usb/libusb.a(usbstandardhub.o)
 .debug_aranges
                0x0000000000000260       0x20 ../../lib/usb/libusb.a(usbmassdevice.o)
 .debug_aranges
                0x0000000000000280       0x20 ../../lib/usb/libusb.a(dwhciframeschednper.o)
 .debug_aranges
                0x00000000000002a0       0x20 ../../lib/usb/libusb.a(dwhciframeschedper.o)
 .debug_aranges
                0x00000000000002c0       0x20 ../../lib/usb/libusb.a(usbkeyboard.o)
 .debug_aranges
                0x00000000000002e0       0x20 ../../lib/usb/libusb.a(dwhcirootport.o)
 .debug_aranges
                0x0000000000000300       0x20 ../../lib/usb/libusb.a(usbhiddevice.o)
 .debug_aranges
                0x0000000000000320       0x20 ../../lib/usb/libusb.a(usbmouse.o)
 .debug_aranges
                0x0000000000000340       0x20 ../../lib/usb/libusb.a(usbgamepad.o)
 .debug_aranges
                0x0000000000000360       0x20 ../../lib/usb/libusb.a(usbfunction.o)
 .debug_aranges
                0x0000000000000380       0x20 ../../lib/usb/libusb.a(dwhciframeschednsplit.o)
 .debug_aranges
                0x00000000000003a0       0x20 ../../lib/usb/libusb.a(usbprinter.o)
 .debug_aranges
                0x00000000000003c0       0x20 ../../lib/usb/libusb.a(usbbluetooth.o)
 .debug_aranges
                0x00000000000003e0       0x20 ../../lib/usb/libusb.a(usbmidi.o)
 .debug_aranges
                0x0000000000000400       0x20 ../../lib/usb/libusb.a(usbcdcethernet.o)
 .debug_aranges
                0x0000000000000420       0x20 ../../lib/usb/libusb.a(usbconfigparser.o)
 .debug_aranges
                0x0000000000000440       0x20 ../../lib/usb/libusb.a(usbstring.o)
 .debug_aranges
                0x0000000000000460       0x20 ../../lib/usb/libusb.a(smsc951x.o)
 .debug_aranges
                0x0000000000000480       0x20 ../../lib/usb/libusb.a(macaddress.o)
 .debug_aranges
                0x00000000000004a0       0x20 ../../lib/usb/libusb.a(netdevice.o)
 .debug_aranges
                0x00000000000004c0       0x20 ../../lib/input/libinput.a(keyboardbehaviour.o)
 .debug_aranges
                0x00000000000004e0       0x20 ../../lib/input/libinput.a(keymap.o)
 .debug_aranges
                0x0000000000000500       0x20 ../../lib/input/libinput.a(mousebehaviour.o)
 .debug_aranges
                0x0000000000000520       0x20 ../../lib/input/libinput.a(touchscreen.o)
 .debug_aranges
                0x0000000000000540       0x20 ../../lib/fs/libfs.a(partitionmanager.o)
 .debug_aranges
                0x0000000000000560       0x20 ../../lib/fs/libfs.a(partition.o)
 .debug_aranges
                0x0000000000000580       0x20 ../../lib/libcircle8.a(actled.o)
 .debug_aranges
                0x00000000000005a0       0x20 ../../lib/libcircle8.a(bcmpropertytags.o)
 .debug_aranges
                0x00000000000005c0       0x28 ../../lib/libcircle8.a(gpiopin.o)
 .debug_aranges
                0x00000000000005e8       0x20 ../../lib/libcircle8.a(memory.o)
 .debug_aranges
                0x0000000000000608       0x20 ../../lib/libcircle8.a(new.o)
 .debug_aranges
                0x0000000000000628       0x20 ../../lib/libcircle8.a(purecall.o)
 .debug_aranges
                0x0000000000000648       0x20 ../../lib/libcircle8.a(synchronize.o)
 .debug_aranges
                0x0000000000000668       0x20 ../../lib/libcircle8.a(sysinit.o)
 .debug_aranges
                0x0000000000000688       0x20 ../../lib/libcircle8.a(timer.o)
 .debug_aranges
                0x00000000000006a8       0x20 ../../lib/libcircle8.a(util.o)
 .debug_aranges
                0x00000000000006c8       0x20 ../../lib/libcircle8.a(device.o)
 .debug_aranges
                0x00000000000006e8       0x20 ../../lib/libcircle8.a(koptions.o)
 .debug_aranges
                0x0000000000000708       0x20 ../../lib/libcircle8.a(pagetable.o)
 .debug_aranges
                0x0000000000000728       0x20 ../../lib/libcircle8.a(screen.o)
 .debug_aranges
                0x0000000000000748       0x20 ../../lib/libcircle8.a(assert.o)
 .debug_aranges
                0x0000000000000768       0x20 ../../lib/libcircle8.a(chargenerator.o)
 .debug_aranges
                0x0000000000000788       0x20 ../../lib/libcircle8.a(debug.o)
 .debug_aranges
                0x00000000000007a8       0x20 ../../lib/libcircle8.a(devicenameservice.o)
 .debug_aranges
                0x00000000000007c8       0x20 ../../lib/libcircle8.a(logger.o)
 .debug_aranges
                0x00000000000007e8       0x20 ../../lib/libcircle8.a(serial.o)
 .debug_aranges
                0x0000000000000808       0x20 ../../lib/libcircle8.a(string.o)
 .debug_aranges
                0x0000000000000828       0x20 ../../lib/libcircle8.a(exceptionhandler.o)
 .debug_aranges
                0x0000000000000848       0x20 ../../lib/libcircle8.a(interrupt.o)
 .debug_aranges
                0x0000000000000868       0x20 ../../lib/libcircle8.a(gpiomanager.o)
 .debug_aranges
                0x0000000000000888       0x20 ../../lib/libcircle8.a(pwmsoundbasedevice.o)
 .debug_aranges
                0x00000000000008a8       0x28 ../../lib/libcircle8.a(virtualgpiopin.o)
 .debug_aranges
                0x00000000000008d0       0x20 ../../lib/libcircle8.a(machineinfo.o)
 .debug_aranges
                0x00000000000008f0       0x28 ../../lib/libcircle8.a(bcmrandom.o)
 .debug_aranges
                0x0000000000000918       0x20 ../../lib/libcircle8.a(ptrlist.o)
 .debug_aranges
                0x0000000000000938       0x28 ../../lib/libcircle8.a(alloc.o)
 .debug_aranges
                0x0000000000000960       0x20 ../../lib/libcircle8.a(bcmmailbox.o)
 .debug_aranges
                0x0000000000000980       0x20 ../../lib/libcircle8.a(libhelper.o)
 .debug_aranges
                0x00000000000009a0       0x20 ../../lib/libcircle8.a(bcmframebuffer.o)
 .debug_aranges
                0x00000000000009c0       0x20 ../../lib/libcircle8.a(gpioclock.o)

.debug_ranges   0x0000000000000000     0x6db8
 .debug_ranges  0x0000000000000000       0x30 main.o
 .debug_ranges  0x0000000000000030       0xa8 kernel.o
 .debug_ranges  0x00000000000000d8     0x4c20 Z80SPC.o
 .debug_ranges  0x0000000000004cf8       0x68 MC6847.o
 .debug_ranges  0x0000000000004d60       0x88 AY8910.o
 .debug_ranges  0x0000000000004de8      0x1b0 ../../addon/ugui/libugui.a(ugui.o)
 .debug_ranges  0x0000000000004f98      0x250 ../../lib/usb/libusb.a(dwhcidevice.o)
 .debug_ranges  0x00000000000051e8       0xa0 ../../lib/usb/libusb.a(usbdevice.o)
 .debug_ranges  0x0000000000005288       0x28 ../../lib/usb/libusb.a(usbendpoint.o)
 .debug_ranges  0x00000000000052b0       0xb8 ../../lib/usb/libusb.a(usbstandardhub.o)
 .debug_ranges  0x0000000000005368       0x58 ../../lib/usb/libusb.a(usbmassdevice.o)
 .debug_ranges  0x00000000000053c0       0x20 ../../lib/usb/libusb.a(dwhciframeschednper.o)
 .debug_ranges  0x00000000000053e0       0x38 ../../lib/usb/libusb.a(dwhciframeschedper.o)
 .debug_ranges  0x0000000000005418       0x90 ../../lib/usb/libusb.a(usbkeyboard.o)
 .debug_ranges  0x00000000000054a8       0x30 ../../lib/usb/libusb.a(usbmouse.o)
 .debug_ranges  0x00000000000054d8       0xb8 ../../lib/usb/libusb.a(usbgamepad.o)
 .debug_ranges  0x0000000000005590       0x70 ../../lib/usb/libusb.a(usbmidi.o)
 .debug_ranges  0x0000000000005600       0x18 ../../lib/usb/libusb.a(usbcdcethernet.o)
 .debug_ranges  0x0000000000005618       0x90 ../../lib/usb/libusb.a(usbconfigparser.o)
 .debug_ranges  0x00000000000056a8       0x58 ../../lib/usb/libusb.a(usbstring.o)
 .debug_ranges  0x0000000000005700       0x18 ../../lib/usb/libusb.a(smsc951x.o)
 .debug_ranges  0x0000000000005718       0x48 ../../lib/usb/libusb.a(macaddress.o)
 .debug_ranges  0x0000000000005760       0x18 ../../lib/input/libinput.a(keyboardbehaviour.o)
 .debug_ranges  0x0000000000005778       0x48 ../../lib/input/libinput.a(keymap.o)
 .debug_ranges  0x00000000000057c0       0x20 ../../lib/input/libinput.a(mousebehaviour.o)
 .debug_ranges  0x00000000000057e0       0x60 ../../lib/input/libinput.a(touchscreen.o)
 .debug_ranges  0x0000000000005840       0x50 ../../lib/fs/libfs.a(partitionmanager.o)
 .debug_ranges  0x0000000000005890       0x30 ../../lib/fs/libfs.a(partition.o)
 .debug_ranges  0x00000000000058c0       0x50 ../../lib/libcircle8.a(actled.o)
 .debug_ranges  0x0000000000005910      0x240 ../../lib/libcircle8.a(gpiopin.o)
 .debug_ranges  0x0000000000005b50       0x18 ../../lib/libcircle8.a(memory.o)
 .debug_ranges  0x0000000000005b68       0x30 ../../lib/libcircle8.a(sysinit.o)
 .debug_ranges  0x0000000000005b98      0x2b0 ../../lib/libcircle8.a(timer.o)
 .debug_ranges  0x0000000000005e48       0x20 ../../lib/libcircle8.a(util.o)
 .debug_ranges  0x0000000000005e68       0xa0 ../../lib/libcircle8.a(koptions.o)
 .debug_ranges  0x0000000000005f08       0x58 ../../lib/libcircle8.a(pagetable.o)
 .debug_ranges  0x0000000000005f60      0x2c0 ../../lib/libcircle8.a(screen.o)
 .debug_ranges  0x0000000000006220       0x38 ../../lib/libcircle8.a(debug.o)
 .debug_ranges  0x0000000000006258       0xb8 ../../lib/libcircle8.a(devicenameservice.o)
 .debug_ranges  0x0000000000006310       0xb0 ../../lib/libcircle8.a(logger.o)
 .debug_ranges  0x00000000000063c0      0x268 ../../lib/libcircle8.a(serial.o)
 .debug_ranges  0x0000000000006628      0x198 ../../lib/libcircle8.a(string.o)
 .debug_ranges  0x00000000000067c0       0x30 ../../lib/libcircle8.a(exceptionhandler.o)
 .debug_ranges  0x00000000000067f0       0x60 ../../lib/libcircle8.a(interrupt.o)
 .debug_ranges  0x0000000000006850       0x48 ../../lib/libcircle8.a(gpiomanager.o)
 .debug_ranges  0x0000000000006898      0x1a0 ../../lib/libcircle8.a(pwmsoundbasedevice.o)
 .debug_ranges  0x0000000000006a38       0xa8 ../../lib/libcircle8.a(virtualgpiopin.o)
 .debug_ranges  0x0000000000006ae0       0x58 ../../lib/libcircle8.a(machineinfo.o)
 .debug_ranges  0x0000000000006b38       0x50 ../../lib/libcircle8.a(bcmrandom.o)
 .debug_ranges  0x0000000000006b88      0x128 ../../lib/libcircle8.a(alloc.o)
 .debug_ranges  0x0000000000006cb0       0x90 ../../lib/libcircle8.a(bcmmailbox.o)
 .debug_ranges  0x0000000000006d40       0x60 ../../lib/libcircle8.a(bcmframebuffer.o)
 .debug_ranges  0x0000000000006da0       0x18 ../../lib/libcircle8.a(gpioclock.o)

.debug_line     0x0000000000000000    0x13334
 .debug_line    0x0000000000000000      0x23d main.o
 .debug_line    0x000000000000023d      0x4ce kernel.o
 .debug_line    0x000000000000070b     0x7790 Z80SPC.o
 .debug_line    0x0000000000007e9b       0x29 spcall.o
 .debug_line    0x0000000000007ec4      0x200 MC6847.o
 .debug_line    0x00000000000080c4      0x3cc AY8910.o
 .debug_line    0x0000000000008490      0x2b0 pwmsound.o
 .debug_line    0x0000000000008740       0xf4 casswindow.o
 .debug_line    0x0000000000008834     0x14c7 ../../addon/ugui/libugui.a(ugui.o)
 .debug_line    0x0000000000009cfb      0x228 ../../addon/ugui/libugui.a(uguicpp.o)
 .debug_line    0x0000000000009f23      0x95e ../../lib/usb/libusb.a(dwhcidevice.o)
 .debug_line    0x000000000000a881      0x1d2 ../../lib/usb/libusb.a(dwhciregister.o)
 .debug_line    0x000000000000aa53      0x382 ../../lib/usb/libusb.a(dwhcixferstagedata.o)
 .debug_line    0x000000000000add5      0x4a8 ../../lib/usb/libusb.a(usbdevice.o)
 .debug_line    0x000000000000b27d      0x203 ../../lib/usb/libusb.a(usbendpoint.o)
 .debug_line    0x000000000000b480      0x16b ../../lib/usb/libusb.a(usbhostcontroller.o)
 .debug_line    0x000000000000b5eb      0x163 ../../lib/usb/libusb.a(usbrequest.o)
 .debug_line    0x000000000000b74e      0x139 ../../lib/usb/libusb.a(usbdevicefactory.o)
 .debug_line    0x000000000000b887      0x3ba ../../lib/usb/libusb.a(usbstandardhub.o)
 .debug_line    0x000000000000bc41      0x3cf ../../lib/usb/libusb.a(usbmassdevice.o)
 .debug_line    0x000000000000c010      0x1ba ../../lib/usb/libusb.a(dwhciframeschednper.o)
 .debug_line    0x000000000000c1ca      0x213 ../../lib/usb/libusb.a(dwhciframeschedper.o)
 .debug_line    0x000000000000c3dd      0x253 ../../lib/usb/libusb.a(usbkeyboard.o)
 .debug_line    0x000000000000c630      0x195 ../../lib/usb/libusb.a(dwhcirootport.o)
 .debug_line    0x000000000000c7c5      0x245 ../../lib/usb/libusb.a(usbhiddevice.o)
 .debug_line    0x000000000000ca0a      0x1d7 ../../lib/usb/libusb.a(usbmouse.o)
 .debug_line    0x000000000000cbe1      0x39a ../../lib/usb/libusb.a(usbgamepad.o)
 .debug_line    0x000000000000cf7b      0x2ee ../../lib/usb/libusb.a(usbfunction.o)
 .debug_line    0x000000000000d269      0x108 ../../lib/usb/libusb.a(dwhciframeschednsplit.o)
 .debug_line    0x000000000000d371      0x20e ../../lib/usb/libusb.a(usbprinter.o)
 .debug_line    0x000000000000d57f      0x2d6 ../../lib/usb/libusb.a(usbbluetooth.o)
 .debug_line    0x000000000000d855      0x31a ../../lib/usb/libusb.a(usbmidi.o)
 .debug_line    0x000000000000db6f      0x292 ../../lib/usb/libusb.a(usbcdcethernet.o)
 .debug_line    0x000000000000de01      0x204 ../../lib/usb/libusb.a(usbconfigparser.o)
 .debug_line    0x000000000000e005      0x20b ../../lib/usb/libusb.a(usbstring.o)
 .debug_line    0x000000000000e210      0x2da ../../lib/usb/libusb.a(smsc951x.o)
 .debug_line    0x000000000000e4ea      0x157 ../../lib/usb/libusb.a(macaddress.o)
 .debug_line    0x000000000000e641       0xd9 ../../lib/usb/libusb.a(netdevice.o)
 .debug_line    0x000000000000e71a      0x1c2 ../../lib/input/libinput.a(keyboardbehaviour.o)
 .debug_line    0x000000000000e8dc      0x197 ../../lib/input/libinput.a(keymap.o)
 .debug_line    0x000000000000ea73      0x1ff ../../lib/input/libinput.a(mousebehaviour.o)
 .debug_line    0x000000000000ec72      0x22f ../../lib/input/libinput.a(touchscreen.o)
 .debug_line    0x000000000000eea1      0x1b8 ../../lib/fs/libfs.a(partitionmanager.o)
 .debug_line    0x000000000000f059       0xf7 ../../lib/fs/libfs.a(partition.o)
 .debug_line    0x000000000000f150      0x155 ../../lib/libcircle8.a(actled.o)
 .debug_line    0x000000000000f2a5      0x108 ../../lib/libcircle8.a(bcmpropertytags.o)
 .debug_line    0x000000000000f3ad      0x65c ../../lib/libcircle8.a(gpiopin.o)
 .debug_line    0x000000000000fa09      0x1bb ../../lib/libcircle8.a(memory.o)
 .debug_line    0x000000000000fbc4       0x5d ../../lib/libcircle8.a(new.o)
 .debug_line    0x000000000000fc21       0x54 ../../lib/libcircle8.a(purecall.o)
 .debug_line    0x000000000000fc75       0xc2 ../../lib/libcircle8.a(synchronize.o)
 .debug_line    0x000000000000fd37       0xbd ../../lib/libcircle8.a(sysinit.o)
 .debug_line    0x000000000000fdf4      0x4dc ../../lib/libcircle8.a(timer.o)
 .debug_line    0x00000000000102d0      0x154 ../../lib/libcircle8.a(util.o)
 .debug_line    0x0000000000010424       0x67 ../../lib/libcircle8.a(device.o)
 .debug_line    0x000000000001048b      0x1ca ../../lib/libcircle8.a(koptions.o)
 .debug_line    0x0000000000010655      0x131 ../../lib/libcircle8.a(pagetable.o)
 .debug_line    0x0000000000010786      0x535 ../../lib/libcircle8.a(screen.o)
 .debug_line    0x0000000000010cbb       0xeb ../../lib/libcircle8.a(assert.o)
 .debug_line    0x0000000000010da6       0xb8 ../../lib/libcircle8.a(chargenerator.o)
 .debug_line    0x0000000000010e5e       0xf5 ../../lib/libcircle8.a(debug.o)
 .debug_line    0x0000000000010f53      0x1c2 ../../lib/libcircle8.a(devicenameservice.o)
 .debug_line    0x0000000000011115      0x248 ../../lib/libcircle8.a(logger.o)
 .debug_line    0x000000000001135d      0x46a ../../lib/libcircle8.a(serial.o)
 .debug_line    0x00000000000117c7      0x3e0 ../../lib/libcircle8.a(string.o)
 .debug_line    0x0000000000011ba7      0x187 ../../lib/libcircle8.a(exceptionhandler.o)
 .debug_line    0x0000000000011d2e      0x271 ../../lib/libcircle8.a(interrupt.o)
 .debug_line    0x0000000000011f9f      0x1ae ../../lib/libcircle8.a(gpiomanager.o)
 .debug_line    0x000000000001214d      0x488 ../../lib/libcircle8.a(pwmsoundbasedevice.o)
 .debug_line    0x00000000000125d5      0x177 ../../lib/libcircle8.a(virtualgpiopin.o)
 .debug_line    0x000000000001274c      0x1bf ../../lib/libcircle8.a(machineinfo.o)
 .debug_line    0x000000000001290b      0x10f ../../lib/libcircle8.a(bcmrandom.o)
 .debug_line    0x0000000000012a1a      0x174 ../../lib/libcircle8.a(ptrlist.o)
 .debug_line    0x0000000000012b8e      0x23f ../../lib/libcircle8.a(alloc.o)
 .debug_line    0x0000000000012dcd      0x1ad ../../lib/libcircle8.a(bcmmailbox.o)
 .debug_line    0x0000000000012f7a       0xde ../../lib/libcircle8.a(libhelper.o)
 .debug_line    0x0000000000013058      0x174 ../../lib/libcircle8.a(bcmframebuffer.o)
 .debug_line    0x00000000000131cc      0x168 ../../lib/libcircle8.a(gpioclock.o)

.debug_str      0x0000000000000000     0xfc0f
 .debug_str     0x0000000000000000     0x1ed6 main.o
                                       0x2210 (size before relaxing)
 .debug_str     0x0000000000001ed6      0xabc kernel.o
                                       0x2d17 (size before relaxing)
 .debug_str     0x0000000000002992     0x14e3 Z80SPC.o
                                       0x19f0 (size before relaxing)
 .debug_str     0x0000000000003e75        0x9 spcall.o
                                         0xe3 (size before relaxing)
 .debug_str     0x0000000000003e7e       0xe7 MC6847.o
                                        0x61a (size before relaxing)
 .debug_str     0x0000000000003f65       0xc7 AY8910.o
                                        0xfec (size before relaxing)
 .debug_str     0x000000000000402c      0x268 pwmsound.o
                                       0x247a (size before relaxing)
 .debug_str     0x0000000000004294      0x226 casswindow.o
                                        0x5f3 (size before relaxing)
 .debug_str     0x00000000000044ba      0xdc5 ../../addon/ugui/libugui.a(ugui.o)
                                       0x129f (size before relaxing)
 .debug_str     0x000000000000527f      0x1d4 ../../addon/ugui/libugui.a(uguicpp.o)
                                       0x1446 (size before relaxing)
 .debug_str     0x0000000000005453     0x2052 ../../lib/usb/libusb.a(dwhcidevice.o)
                                       0x2fbd (size before relaxing)
 .debug_str     0x00000000000074a5       0x77 ../../lib/usb/libusb.a(dwhciregister.o)
                                        0xf2a (size before relaxing)
 .debug_str     0x000000000000751c      0x1eb ../../lib/usb/libusb.a(dwhcixferstagedata.o)
                                       0x15e3 (size before relaxing)
 .debug_str     0x0000000000007707      0xa58 ../../lib/usb/libusb.a(usbdevice.o)
                                       0x1d8c (size before relaxing)
 .debug_str     0x000000000000815f       0xba ../../lib/usb/libusb.a(usbendpoint.o)
                                        0x67e (size before relaxing)
 .debug_str     0x0000000000008219      0x252 ../../lib/usb/libusb.a(usbhostcontroller.o)
                                       0x161f (size before relaxing)
 .debug_str     0x000000000000846b       0x60 ../../lib/usb/libusb.a(usbrequest.o)
                                        0x996 (size before relaxing)
 .debug_str     0x00000000000084cb       0x3c ../../lib/usb/libusb.a(usbdevicefactory.o)
                                        0x2d9 (size before relaxing)
 .debug_str     0x0000000000008507      0x36a ../../lib/usb/libusb.a(usbstandardhub.o)
                                       0x1b8a (size before relaxing)
 .debug_str     0x0000000000008871      0x7fc ../../lib/usb/libusb.a(usbmassdevice.o)
                                       0x1d6a (size before relaxing)
 .debug_str     0x000000000000906d      0x317 ../../lib/usb/libusb.a(dwhciframeschednper.o)
                                       0x1211 (size before relaxing)
 .debug_str     0x0000000000009384      0x234 ../../lib/usb/libusb.a(dwhciframeschedper.o)
                                       0x1403 (size before relaxing)
 .debug_str     0x00000000000095b8      0x831 ../../lib/usb/libusb.a(usbkeyboard.o)
                                       0x1812 (size before relaxing)
 .debug_str     0x0000000000009de9       0x5e ../../lib/usb/libusb.a(dwhcirootport.o)
                                        0xec1 (size before relaxing)
 .debug_str     0x0000000000009e47      0x217 ../../lib/usb/libusb.a(usbhiddevice.o)
                                       0x1871 (size before relaxing)
 .debug_str     0x000000000000a05e      0x3b6 ../../lib/usb/libusb.a(usbmouse.o)
                                       0x13dc (size before relaxing)
 .debug_str     0x000000000000a414      0x42e ../../lib/usb/libusb.a(usbgamepad.o)
                                       0x15c8 (size before relaxing)
 .debug_str     0x000000000000a842      0x182 ../../lib/usb/libusb.a(usbfunction.o)
                                       0x18c7 (size before relaxing)
 .debug_str     0x000000000000a9c4      0x220 ../../lib/usb/libusb.a(dwhciframeschednsplit.o)
                                        0x825 (size before relaxing)
 .debug_str     0x000000000000abe4      0x1d7 ../../lib/usb/libusb.a(usbprinter.o)
                                       0x15e5 (size before relaxing)
 .debug_str     0x000000000000adbb      0x2de ../../lib/usb/libusb.a(usbbluetooth.o)
                                       0x1abe (size before relaxing)
 .debug_str     0x000000000000b099      0x2c6 ../../lib/usb/libusb.a(usbmidi.o)
                                       0x1bdf (size before relaxing)
 .debug_str     0x000000000000b35f      0x5cf ../../lib/usb/libusb.a(usbcdcethernet.o)
                                       0x1c45 (size before relaxing)
 .debug_str     0x000000000000b92e      0x109 ../../lib/usb/libusb.a(usbconfigparser.o)
                                       0x11d9 (size before relaxing)
 .debug_str     0x000000000000ba37       0x97 ../../lib/usb/libusb.a(usbstring.o)
                                        0x47b (size before relaxing)
 .debug_str     0x000000000000bace      0x289 ../../lib/usb/libusb.a(smsc951x.o)
                                       0x1cb0 (size before relaxing)
 .debug_str     0x000000000000bd57       0x6a ../../lib/usb/libusb.a(macaddress.o)
                                        0x3c9 (size before relaxing)
 .debug_str     0x000000000000bdc1      0x153 ../../lib/usb/libusb.a(netdevice.o)
                                        0x704 (size before relaxing)
 .debug_str     0x000000000000bf14      0x2aa ../../lib/input/libinput.a(keyboardbehaviour.o)
                                       0x129b (size before relaxing)
 .debug_str     0x000000000000c1be      0x2bc ../../lib/input/libinput.a(keymap.o)
                                        0xabc (size before relaxing)
 .debug_str     0x000000000000c47a      0x107 ../../lib/input/libinput.a(mousebehaviour.o)
                                        0x78a (size before relaxing)
 .debug_str     0x000000000000c581      0x19e ../../lib/input/libinput.a(touchscreen.o)
                                       0x128c (size before relaxing)
 .debug_str     0x000000000000c71f      0x125 ../../lib/fs/libfs.a(partitionmanager.o)
                                       0x101a (size before relaxing)
 .debug_str     0x000000000000c844      0x142 ../../lib/fs/libfs.a(partition.o)
                                        0x345 (size before relaxing)
 .debug_str     0x000000000000c986       0xd0 ../../lib/libcircle8.a(actled.o)
                                        0xe4f (size before relaxing)
 .debug_str     0x000000000000ca56       0xa6 ../../lib/libcircle8.a(bcmpropertytags.o)
                                        0x461 (size before relaxing)
 .debug_str     0x000000000000cafc      0xb6a ../../lib/libcircle8.a(gpiopin.o)
                                       0x1823 (size before relaxing)
 .debug_str     0x000000000000d666       0xa2 ../../lib/libcircle8.a(memory.o)
                                        0x72c (size before relaxing)
 .debug_str     0x000000000000d708       0x25 ../../lib/libcircle8.a(new.o)
                                        0x172 (size before relaxing)
 .debug_str     0x000000000000d72d       0x20 ../../lib/libcircle8.a(purecall.o)
                                        0x10b (size before relaxing)
 .debug_str     0x000000000000d74d       0x45 ../../lib/libcircle8.a(synchronize.o)
                                        0x1fa (size before relaxing)
 .debug_str     0x000000000000d792       0x59 ../../lib/libcircle8.a(sysinit.o)
                                        0x69b (size before relaxing)
 .debug_str     0x000000000000d7eb      0x169 ../../lib/libcircle8.a(timer.o)
                                        0xf44 (size before relaxing)
 .debug_str     0x000000000000d954       0xd1 ../../lib/libcircle8.a(util.o)
                                        0x27d (size before relaxing)
 .debug_str     0x000000000000da25       0xb9 ../../lib/libcircle8.a(device.o)
                                        0x22a (size before relaxing)
 .debug_str     0x000000000000dade       0x6e ../../lib/libcircle8.a(koptions.o)
                                        0x7b6 (size before relaxing)
 .debug_str     0x000000000000db4c       0x65 ../../lib/libcircle8.a(pagetable.o)
                                        0x2f5 (size before relaxing)
 .debug_str     0x000000000000dbb1      0xbdc ../../lib/libcircle8.a(screen.o)
                                       0x12df (size before relaxing)
 .debug_str     0x000000000000e78d       0x4e ../../lib/libcircle8.a(assert.o)
                                        0xd2c (size before relaxing)
 .debug_str     0x000000000000e7db       0x67 ../../lib/libcircle8.a(chargenerator.o)
                                        0x316 (size before relaxing)
 .debug_str     0x000000000000e842       0x2d ../../lib/libcircle8.a(debug.o)
                                        0xd0e (size before relaxing)
 .debug_str     0x000000000000e86f       0x74 ../../lib/libcircle8.a(devicenameservice.o)
                                        0x439 (size before relaxing)
 .debug_str     0x000000000000e8e3       0x63 ../../lib/libcircle8.a(logger.o)
                                       0x12f9 (size before relaxing)
 .debug_str     0x000000000000e946      0x2b7 ../../lib/libcircle8.a(serial.o)
                                        0xf70 (size before relaxing)
 .debug_str     0x000000000000ebfd      0x20f ../../lib/libcircle8.a(string.o)
                                        0x5a1 (size before relaxing)
 .debug_str     0x000000000000ee0c       0xfe ../../lib/libcircle8.a(exceptionhandler.o)
                                        0xef7 (size before relaxing)
 .debug_str     0x000000000000ef0a       0x74 ../../lib/libcircle8.a(interrupt.o)
                                        0x586 (size before relaxing)
 .debug_str     0x000000000000ef7e       0x5b ../../lib/libcircle8.a(gpiomanager.o)
                                        0x6eb (size before relaxing)
 .debug_str     0x000000000000efd9      0x5ad ../../lib/libcircle8.a(pwmsoundbasedevice.o)
                                       0x1405 (size before relaxing)
 .debug_str     0x000000000000f586      0x17e ../../lib/libcircle8.a(virtualgpiopin.o)
                                        0x669 (size before relaxing)
 .debug_str     0x000000000000f704       0xaf ../../lib/libcircle8.a(machineinfo.o)
                                        0x956 (size before relaxing)
 .debug_str     0x000000000000f7b3       0xbf ../../lib/libcircle8.a(bcmrandom.o)
                                        0x428 (size before relaxing)
 .debug_str     0x000000000000f872       0x48 ../../lib/libcircle8.a(ptrlist.o)
                                        0x31d (size before relaxing)
 .debug_str     0x000000000000f8ba      0x12a ../../lib/libcircle8.a(alloc.o)
                                        0x3c8 (size before relaxing)
 .debug_str     0x000000000000f9e4       0x3f ../../lib/libcircle8.a(bcmmailbox.o)
                                        0xc7c (size before relaxing)
 .debug_str     0x000000000000fa23       0x55 ../../lib/libcircle8.a(libhelper.o)
                                        0x2e4 (size before relaxing)
 .debug_str     0x000000000000fa78      0x120 ../../lib/libcircle8.a(bcmframebuffer.o)
                                        0x8cb (size before relaxing)
 .debug_str     0x000000000000fb98       0x77 ../../lib/libcircle8.a(gpioclock.o)
                                        0xceb (size before relaxing)

.debug_frame    0x0000000000000000     0x65e4
 .debug_frame   0x0000000000000000       0x44 main.o
 .debug_frame   0x0000000000000044      0x240 kernel.o
 .debug_frame   0x0000000000000284      0x174 Z80SPC.o
 .debug_frame   0x00000000000003f8       0x68 MC6847.o
 .debug_frame   0x0000000000000460      0x1d8 AY8910.o
 .debug_frame   0x0000000000000638       0xc0 pwmsound.o
 .debug_frame   0x00000000000006f8       0x80 casswindow.o
 .debug_frame   0x0000000000000778     0x1008 ../../addon/ugui/libugui.a(ugui.o)
 .debug_frame   0x0000000000001780      0x110 ../../addon/ugui/libugui.a(uguicpp.o)
 .debug_frame   0x0000000000001890      0x574 ../../lib/usb/libusb.a(dwhcidevice.o)
 .debug_frame   0x0000000000001e04      0x160 ../../lib/usb/libusb.a(dwhciregister.o)
 .debug_frame   0x0000000000001f64      0x2cc ../../lib/usb/libusb.a(dwhcixferstagedata.o)
 .debug_frame   0x0000000000002230      0x26c ../../lib/usb/libusb.a(usbdevice.o)
 .debug_frame   0x000000000000249c      0x148 ../../lib/usb/libusb.a(usbendpoint.o)
 .debug_frame   0x00000000000025e4       0xf4 ../../lib/usb/libusb.a(usbhostcontroller.o)
 .debug_frame   0x00000000000026d8      0x128 ../../lib/usb/libusb.a(usbrequest.o)
 .debug_frame   0x0000000000002800       0x2c ../../lib/usb/libusb.a(usbdevicefactory.o)
 .debug_frame   0x000000000000282c       0xc8 ../../lib/usb/libusb.a(usbstandardhub.o)
 .debug_frame   0x00000000000028f4      0x1a4 ../../lib/usb/libusb.a(usbmassdevice.o)
 .debug_frame   0x0000000000002a98       0xcc ../../lib/usb/libusb.a(dwhciframeschednper.o)
 .debug_frame   0x0000000000002b64       0xe4 ../../lib/usb/libusb.a(dwhciframeschedper.o)
 .debug_frame   0x0000000000002c48      0x180 ../../lib/usb/libusb.a(usbkeyboard.o)
 .debug_frame   0x0000000000002dc8       0x70 ../../lib/usb/libusb.a(dwhcirootport.o)
 .debug_frame   0x0000000000002e38      0x130 ../../lib/usb/libusb.a(usbhiddevice.o)
 .debug_frame   0x0000000000002f68      0x108 ../../lib/usb/libusb.a(usbmouse.o)
 .debug_frame   0x0000000000003070      0x194 ../../lib/usb/libusb.a(usbgamepad.o)
 .debug_frame   0x0000000000003204      0x1e4 ../../lib/usb/libusb.a(usbfunction.o)
 .debug_frame   0x00000000000033e8       0xb0 ../../lib/usb/libusb.a(dwhciframeschednsplit.o)
 .debug_frame   0x0000000000003498       0xb0 ../../lib/usb/libusb.a(usbprinter.o)
 .debug_frame   0x0000000000003548      0x15c ../../lib/usb/libusb.a(usbbluetooth.o)
 .debug_frame   0x00000000000036a4      0x1a4 ../../lib/usb/libusb.a(usbmidi.o)
 .debug_frame   0x0000000000003848      0x104 ../../lib/usb/libusb.a(usbcdcethernet.o)
 .debug_frame   0x000000000000394c       0xcc ../../lib/usb/libusb.a(usbconfigparser.o)
 .debug_frame   0x0000000000003a18       0xd8 ../../lib/usb/libusb.a(usbstring.o)
 .debug_frame   0x0000000000003af0      0x184 ../../lib/usb/libusb.a(smsc951x.o)
 .debug_frame   0x0000000000003c74      0x13c ../../lib/usb/libusb.a(macaddress.o)
 .debug_frame   0x0000000000003db0       0x78 ../../lib/usb/libusb.a(netdevice.o)
 .debug_frame   0x0000000000003e28      0x150 ../../lib/input/libinput.a(keyboardbehaviour.o)
 .debug_frame   0x0000000000003f78       0xc4 ../../lib/input/libinput.a(keymap.o)
 .debug_frame   0x000000000000403c      0x108 ../../lib/input/libinput.a(mousebehaviour.o)
 .debug_frame   0x0000000000004144       0xd0 ../../lib/input/libinput.a(touchscreen.o)
 .debug_frame   0x0000000000004214       0x80 ../../lib/fs/libfs.a(partitionmanager.o)
 .debug_frame   0x0000000000004294      0x104 ../../lib/fs/libfs.a(partition.o)
 .debug_frame   0x0000000000004398       0x98 ../../lib/libcircle8.a(actled.o)
 .debug_frame   0x0000000000004430       0x84 ../../lib/libcircle8.a(bcmpropertytags.o)
 .debug_frame   0x00000000000044b4      0x280 ../../lib/libcircle8.a(gpiopin.o)
 .debug_frame   0x0000000000004734       0xe0 ../../lib/libcircle8.a(memory.o)
 .debug_frame   0x0000000000004814       0x70 ../../lib/libcircle8.a(new.o)
 .debug_frame   0x0000000000004884       0x20 ../../lib/libcircle8.a(purecall.o)
 .debug_frame   0x00000000000048a4       0x64 ../../lib/libcircle8.a(synchronize.o)
 .debug_frame   0x0000000000004908       0x5c ../../lib/libcircle8.a(sysinit.o)
 .debug_frame   0x0000000000004964      0x2b4 ../../lib/libcircle8.a(timer.o)
 .debug_frame   0x0000000000004c18       0xec ../../lib/libcircle8.a(util.o)
 .debug_frame   0x0000000000004d04       0x68 ../../lib/libcircle8.a(device.o)
 .debug_frame   0x0000000000004d6c      0x120 ../../lib/libcircle8.a(koptions.o)
 .debug_frame   0x0000000000004e8c       0x74 ../../lib/libcircle8.a(pagetable.o)
 .debug_frame   0x0000000000004f00      0x500 ../../lib/libcircle8.a(screen.o)
 .debug_frame   0x0000000000005400       0x34 ../../lib/libcircle8.a(assert.o)
 .debug_frame   0x0000000000005434       0x7c ../../lib/libcircle8.a(chargenerator.o)
 .debug_frame   0x00000000000054b0       0x64 ../../lib/libcircle8.a(debug.o)
 .debug_frame   0x0000000000005514       0xb0 ../../lib/libcircle8.a(devicenameservice.o)
 .debug_frame   0x00000000000055c4      0x10c ../../lib/libcircle8.a(logger.o)
 .debug_frame   0x00000000000056d0      0x14c ../../lib/libcircle8.a(serial.o)
 .debug_frame   0x000000000000581c      0x230 ../../lib/libcircle8.a(string.o)
 .debug_frame   0x0000000000005a4c       0xcc ../../lib/libcircle8.a(exceptionhandler.o)
 .debug_frame   0x0000000000005b18      0x1a8 ../../lib/libcircle8.a(interrupt.o)
 .debug_frame   0x0000000000005cc0       0xd8 ../../lib/libcircle8.a(gpiomanager.o)
 .debug_frame   0x0000000000005d98      0x170 ../../lib/libcircle8.a(pwmsoundbasedevice.o)
 .debug_frame   0x0000000000005f08       0xc0 ../../lib/libcircle8.a(virtualgpiopin.o)
 .debug_frame   0x0000000000005fc8      0x138 ../../lib/libcircle8.a(machineinfo.o)
 .debug_frame   0x0000000000006100       0x68 ../../lib/libcircle8.a(bcmrandom.o)
 .debug_frame   0x0000000000006168      0x100 ../../lib/libcircle8.a(ptrlist.o)
 .debug_frame   0x0000000000006268       0xc4 ../../lib/libcircle8.a(alloc.o)
 .debug_frame   0x000000000000632c       0x90 ../../lib/libcircle8.a(bcmmailbox.o)
 .debug_frame   0x00000000000063bc       0x54 ../../lib/libcircle8.a(libhelper.o)
 .debug_frame   0x0000000000006410      0x168 ../../lib/libcircle8.a(bcmframebuffer.o)
 .debug_frame   0x0000000000006578       0x6c ../../lib/libcircle8.a(gpioclock.o)
